ARM GAS  C:\Users\Xusniyor\AppData\Local\Temp\ccusJTJw.s 			page 1


   1              		.cpu cortex-m0plus
   2              		.arch armv6s-m
   3              		.fpu softvfp
   4              		.eabi_attribute 20, 1
   5              		.eabi_attribute 21, 1
   6              		.eabi_attribute 23, 3
   7              		.eabi_attribute 24, 1
   8              		.eabi_attribute 25, 1
   9              		.eabi_attribute 26, 1
  10              		.eabi_attribute 30, 1
  11              		.eabi_attribute 34, 0
  12              		.eabi_attribute 18, 4
  13              		.file	"stm32g0xx_hal_rcc_ex.c"
  14              		.text
  15              	.Ltext0:
  16              		.cfi_sections	.debug_frame
  17              		.section	.text.HAL_RCCEx_PeriphCLKConfig,"ax",%progbits
  18              		.align	1
  19              		.global	HAL_RCCEx_PeriphCLKConfig
  20              		.syntax unified
  21              		.code	16
  22              		.thumb_func
  24              	HAL_RCCEx_PeriphCLKConfig:
  25              	.LVL0:
  26              	.LFB297:
  27              		.file 1 "Drivers/STM32G0xx_HAL_Driver/Src/stm32g0xx_hal_rcc_ex.c"
   1:Drivers/STM32G0xx_HAL_Driver/Src/stm32g0xx_hal_rcc_ex.c **** /**
   2:Drivers/STM32G0xx_HAL_Driver/Src/stm32g0xx_hal_rcc_ex.c ****   ******************************************************************************
   3:Drivers/STM32G0xx_HAL_Driver/Src/stm32g0xx_hal_rcc_ex.c ****   * @file    stm32g0xx_hal_rcc_ex.c
   4:Drivers/STM32G0xx_HAL_Driver/Src/stm32g0xx_hal_rcc_ex.c ****   * @author  MCD Application Team
   5:Drivers/STM32G0xx_HAL_Driver/Src/stm32g0xx_hal_rcc_ex.c ****   * @brief   Extended RCC HAL module driver.
   6:Drivers/STM32G0xx_HAL_Driver/Src/stm32g0xx_hal_rcc_ex.c ****   *          This file provides firmware functions to manage the following
   7:Drivers/STM32G0xx_HAL_Driver/Src/stm32g0xx_hal_rcc_ex.c ****   *          functionalities RCC extended peripheral:
   8:Drivers/STM32G0xx_HAL_Driver/Src/stm32g0xx_hal_rcc_ex.c ****   *           + Extended Peripheral Control functions
   9:Drivers/STM32G0xx_HAL_Driver/Src/stm32g0xx_hal_rcc_ex.c ****   *           + Extended Clock management functions
  10:Drivers/STM32G0xx_HAL_Driver/Src/stm32g0xx_hal_rcc_ex.c ****   *           + Extended Clock Recovery System Control functions
  11:Drivers/STM32G0xx_HAL_Driver/Src/stm32g0xx_hal_rcc_ex.c ****   *
  12:Drivers/STM32G0xx_HAL_Driver/Src/stm32g0xx_hal_rcc_ex.c ****   ******************************************************************************
  13:Drivers/STM32G0xx_HAL_Driver/Src/stm32g0xx_hal_rcc_ex.c ****   * @attention
  14:Drivers/STM32G0xx_HAL_Driver/Src/stm32g0xx_hal_rcc_ex.c ****   *
  15:Drivers/STM32G0xx_HAL_Driver/Src/stm32g0xx_hal_rcc_ex.c ****   * <h2><center>&copy; Copyright (c) 2018 STMicroelectronics.
  16:Drivers/STM32G0xx_HAL_Driver/Src/stm32g0xx_hal_rcc_ex.c ****   * All rights reserved.</center></h2>
  17:Drivers/STM32G0xx_HAL_Driver/Src/stm32g0xx_hal_rcc_ex.c ****   *
  18:Drivers/STM32G0xx_HAL_Driver/Src/stm32g0xx_hal_rcc_ex.c ****   * This software component is licensed by ST under BSD 3-Clause license,
  19:Drivers/STM32G0xx_HAL_Driver/Src/stm32g0xx_hal_rcc_ex.c ****   * the "License"; You may not use this file except in compliance with the
  20:Drivers/STM32G0xx_HAL_Driver/Src/stm32g0xx_hal_rcc_ex.c ****   * License. You may obtain a copy of the License at:
  21:Drivers/STM32G0xx_HAL_Driver/Src/stm32g0xx_hal_rcc_ex.c ****   *                        opensource.org/licenses/BSD-3-Clause
  22:Drivers/STM32G0xx_HAL_Driver/Src/stm32g0xx_hal_rcc_ex.c ****   *
  23:Drivers/STM32G0xx_HAL_Driver/Src/stm32g0xx_hal_rcc_ex.c ****   ******************************************************************************
  24:Drivers/STM32G0xx_HAL_Driver/Src/stm32g0xx_hal_rcc_ex.c ****   */
  25:Drivers/STM32G0xx_HAL_Driver/Src/stm32g0xx_hal_rcc_ex.c **** 
  26:Drivers/STM32G0xx_HAL_Driver/Src/stm32g0xx_hal_rcc_ex.c **** /* Includes ------------------------------------------------------------------*/
  27:Drivers/STM32G0xx_HAL_Driver/Src/stm32g0xx_hal_rcc_ex.c **** #include "stm32g0xx_hal.h"
  28:Drivers/STM32G0xx_HAL_Driver/Src/stm32g0xx_hal_rcc_ex.c **** 
  29:Drivers/STM32G0xx_HAL_Driver/Src/stm32g0xx_hal_rcc_ex.c **** /** @addtogroup STM32G0xx_HAL_Driver
  30:Drivers/STM32G0xx_HAL_Driver/Src/stm32g0xx_hal_rcc_ex.c ****   * @{
  31:Drivers/STM32G0xx_HAL_Driver/Src/stm32g0xx_hal_rcc_ex.c ****   */
ARM GAS  C:\Users\Xusniyor\AppData\Local\Temp\ccusJTJw.s 			page 2


  32:Drivers/STM32G0xx_HAL_Driver/Src/stm32g0xx_hal_rcc_ex.c **** 
  33:Drivers/STM32G0xx_HAL_Driver/Src/stm32g0xx_hal_rcc_ex.c **** /** @defgroup RCCEx RCCEx
  34:Drivers/STM32G0xx_HAL_Driver/Src/stm32g0xx_hal_rcc_ex.c ****   * @brief RCC Extended HAL module driver
  35:Drivers/STM32G0xx_HAL_Driver/Src/stm32g0xx_hal_rcc_ex.c ****   * @{
  36:Drivers/STM32G0xx_HAL_Driver/Src/stm32g0xx_hal_rcc_ex.c ****   */
  37:Drivers/STM32G0xx_HAL_Driver/Src/stm32g0xx_hal_rcc_ex.c **** 
  38:Drivers/STM32G0xx_HAL_Driver/Src/stm32g0xx_hal_rcc_ex.c **** #ifdef HAL_RCC_MODULE_ENABLED
  39:Drivers/STM32G0xx_HAL_Driver/Src/stm32g0xx_hal_rcc_ex.c **** 
  40:Drivers/STM32G0xx_HAL_Driver/Src/stm32g0xx_hal_rcc_ex.c **** /* Private typedef -----------------------------------------------------------*/
  41:Drivers/STM32G0xx_HAL_Driver/Src/stm32g0xx_hal_rcc_ex.c **** /* Private defines -----------------------------------------------------------*/
  42:Drivers/STM32G0xx_HAL_Driver/Src/stm32g0xx_hal_rcc_ex.c **** /** @defgroup RCCEx_Private_Constants RCCEx Private Constants
  43:Drivers/STM32G0xx_HAL_Driver/Src/stm32g0xx_hal_rcc_ex.c ****   * @{
  44:Drivers/STM32G0xx_HAL_Driver/Src/stm32g0xx_hal_rcc_ex.c ****   */
  45:Drivers/STM32G0xx_HAL_Driver/Src/stm32g0xx_hal_rcc_ex.c **** #define PLL_TIMEOUT_VALUE        100U /* 100 ms (minimum Tick + 1)  */
  46:Drivers/STM32G0xx_HAL_Driver/Src/stm32g0xx_hal_rcc_ex.c **** 
  47:Drivers/STM32G0xx_HAL_Driver/Src/stm32g0xx_hal_rcc_ex.c **** #define LSCO_CLK_ENABLE()     __HAL_RCC_GPIOA_CLK_ENABLE()
  48:Drivers/STM32G0xx_HAL_Driver/Src/stm32g0xx_hal_rcc_ex.c **** #define LSCO_GPIO_PORT        GPIOA
  49:Drivers/STM32G0xx_HAL_Driver/Src/stm32g0xx_hal_rcc_ex.c **** #define LSCO_PIN              GPIO_PIN_2
  50:Drivers/STM32G0xx_HAL_Driver/Src/stm32g0xx_hal_rcc_ex.c **** /**
  51:Drivers/STM32G0xx_HAL_Driver/Src/stm32g0xx_hal_rcc_ex.c ****   * @}
  52:Drivers/STM32G0xx_HAL_Driver/Src/stm32g0xx_hal_rcc_ex.c ****   */
  53:Drivers/STM32G0xx_HAL_Driver/Src/stm32g0xx_hal_rcc_ex.c **** 
  54:Drivers/STM32G0xx_HAL_Driver/Src/stm32g0xx_hal_rcc_ex.c **** /* Private macros ------------------------------------------------------------*/
  55:Drivers/STM32G0xx_HAL_Driver/Src/stm32g0xx_hal_rcc_ex.c **** /* Private variables ---------------------------------------------------------*/
  56:Drivers/STM32G0xx_HAL_Driver/Src/stm32g0xx_hal_rcc_ex.c **** /* Private function prototypes -----------------------------------------------*/
  57:Drivers/STM32G0xx_HAL_Driver/Src/stm32g0xx_hal_rcc_ex.c **** /* Exported functions --------------------------------------------------------*/
  58:Drivers/STM32G0xx_HAL_Driver/Src/stm32g0xx_hal_rcc_ex.c **** 
  59:Drivers/STM32G0xx_HAL_Driver/Src/stm32g0xx_hal_rcc_ex.c **** /** @defgroup RCCEx_Exported_Functions RCCEx Exported Functions
  60:Drivers/STM32G0xx_HAL_Driver/Src/stm32g0xx_hal_rcc_ex.c ****   * @{
  61:Drivers/STM32G0xx_HAL_Driver/Src/stm32g0xx_hal_rcc_ex.c ****   */
  62:Drivers/STM32G0xx_HAL_Driver/Src/stm32g0xx_hal_rcc_ex.c **** 
  63:Drivers/STM32G0xx_HAL_Driver/Src/stm32g0xx_hal_rcc_ex.c **** /** @defgroup RCCEx_Exported_Functions_Group1 Extended Peripheral Control functions
  64:Drivers/STM32G0xx_HAL_Driver/Src/stm32g0xx_hal_rcc_ex.c ****   * @brief  Extended Peripheral Control functions
  65:Drivers/STM32G0xx_HAL_Driver/Src/stm32g0xx_hal_rcc_ex.c ****   *
  66:Drivers/STM32G0xx_HAL_Driver/Src/stm32g0xx_hal_rcc_ex.c **** @verbatim
  67:Drivers/STM32G0xx_HAL_Driver/Src/stm32g0xx_hal_rcc_ex.c ****  ===============================================================================
  68:Drivers/STM32G0xx_HAL_Driver/Src/stm32g0xx_hal_rcc_ex.c ****                 ##### Extended Peripheral Control functions  #####
  69:Drivers/STM32G0xx_HAL_Driver/Src/stm32g0xx_hal_rcc_ex.c ****  ===============================================================================
  70:Drivers/STM32G0xx_HAL_Driver/Src/stm32g0xx_hal_rcc_ex.c ****     [..]
  71:Drivers/STM32G0xx_HAL_Driver/Src/stm32g0xx_hal_rcc_ex.c ****     This subsection provides a set of functions allowing to control the RCC Clocks
  72:Drivers/STM32G0xx_HAL_Driver/Src/stm32g0xx_hal_rcc_ex.c ****     frequencies.
  73:Drivers/STM32G0xx_HAL_Driver/Src/stm32g0xx_hal_rcc_ex.c ****     [..]
  74:Drivers/STM32G0xx_HAL_Driver/Src/stm32g0xx_hal_rcc_ex.c ****     (@) Important note: Care must be taken when @ref HAL_RCCEx_PeriphCLKConfig() is used to
  75:Drivers/STM32G0xx_HAL_Driver/Src/stm32g0xx_hal_rcc_ex.c ****         select the RTC clock source; in this case the Backup domain will be reset in
  76:Drivers/STM32G0xx_HAL_Driver/Src/stm32g0xx_hal_rcc_ex.c ****         order to modify the RTC Clock source, as consequence RTC registers (including
  77:Drivers/STM32G0xx_HAL_Driver/Src/stm32g0xx_hal_rcc_ex.c ****         the backup registers) and RCC_BDCR register are set to their reset values.
  78:Drivers/STM32G0xx_HAL_Driver/Src/stm32g0xx_hal_rcc_ex.c **** 
  79:Drivers/STM32G0xx_HAL_Driver/Src/stm32g0xx_hal_rcc_ex.c **** @endverbatim
  80:Drivers/STM32G0xx_HAL_Driver/Src/stm32g0xx_hal_rcc_ex.c ****   * @{
  81:Drivers/STM32G0xx_HAL_Driver/Src/stm32g0xx_hal_rcc_ex.c ****   */
  82:Drivers/STM32G0xx_HAL_Driver/Src/stm32g0xx_hal_rcc_ex.c **** /**
  83:Drivers/STM32G0xx_HAL_Driver/Src/stm32g0xx_hal_rcc_ex.c ****   * @brief  Initialize the RCC extended peripherals clocks according to the specified
  84:Drivers/STM32G0xx_HAL_Driver/Src/stm32g0xx_hal_rcc_ex.c ****   *         parameters in the @ref RCC_PeriphCLKInitTypeDef.
  85:Drivers/STM32G0xx_HAL_Driver/Src/stm32g0xx_hal_rcc_ex.c ****   * @param  PeriphClkInit  pointer to a @ref RCC_PeriphCLKInitTypeDef structure that
  86:Drivers/STM32G0xx_HAL_Driver/Src/stm32g0xx_hal_rcc_ex.c ****   *         contains a field PeriphClockSelection which can be a combination of the following value
  87:Drivers/STM32G0xx_HAL_Driver/Src/stm32g0xx_hal_rcc_ex.c ****   *            @arg @ref RCC_PERIPHCLK_RTC     RTC peripheral clock
  88:Drivers/STM32G0xx_HAL_Driver/Src/stm32g0xx_hal_rcc_ex.c ****   *            @arg @ref RCC_PERIPHCLK_ADC     ADC peripheral clock
ARM GAS  C:\Users\Xusniyor\AppData\Local\Temp\ccusJTJw.s 			page 3


  89:Drivers/STM32G0xx_HAL_Driver/Src/stm32g0xx_hal_rcc_ex.c ****   *            @arg @ref RCC_PERIPHCLK_I2C1    I2C1 peripheral clock
  90:Drivers/STM32G0xx_HAL_Driver/Src/stm32g0xx_hal_rcc_ex.c ****   *            @arg @ref RCC_PERIPHCLK_I2C2    I2C2 peripheral clock (2)
  91:Drivers/STM32G0xx_HAL_Driver/Src/stm32g0xx_hal_rcc_ex.c ****   *            @arg @ref RCC_PERIPHCLK_I2S1    I2S1 peripheral clock
  92:Drivers/STM32G0xx_HAL_Driver/Src/stm32g0xx_hal_rcc_ex.c ****   *            @arg @ref RCC_PERIPHCLK_I2S2    I2S2 peripheral clock (1)
  93:Drivers/STM32G0xx_HAL_Driver/Src/stm32g0xx_hal_rcc_ex.c ****   *            @arg @ref RCC_PERIPHCLK_USART1  USART1 peripheral clock
  94:Drivers/STM32G0xx_HAL_Driver/Src/stm32g0xx_hal_rcc_ex.c ****   *            @arg @ref RCC_PERIPHCLK_CEC     CEC peripheral clock     (1)
  95:Drivers/STM32G0xx_HAL_Driver/Src/stm32g0xx_hal_rcc_ex.c ****   *            @arg @ref RCC_PERIPHCLK_LPTIM1  LPTIM1 peripheral clock  (1)
  96:Drivers/STM32G0xx_HAL_Driver/Src/stm32g0xx_hal_rcc_ex.c ****   *            @arg @ref RCC_PERIPHCLK_LPTIM2  LPTIM2 peripheral clock  (1)
  97:Drivers/STM32G0xx_HAL_Driver/Src/stm32g0xx_hal_rcc_ex.c ****   *            @arg @ref RCC_PERIPHCLK_LPUART1 LPUART1 peripheral clock (1)
  98:Drivers/STM32G0xx_HAL_Driver/Src/stm32g0xx_hal_rcc_ex.c ****   *            @arg @ref RCC_PERIPHCLK_LPUART2 LPUART2 peripheral clock (1)
  99:Drivers/STM32G0xx_HAL_Driver/Src/stm32g0xx_hal_rcc_ex.c ****   *            @arg @ref RCC_PERIPHCLK_RNG     RNG peripheral clock     (1)
 100:Drivers/STM32G0xx_HAL_Driver/Src/stm32g0xx_hal_rcc_ex.c ****   *            @arg @ref RCC_PERIPHCLK_TIM1    TIM1 peripheral clock    (1)(2)
 101:Drivers/STM32G0xx_HAL_Driver/Src/stm32g0xx_hal_rcc_ex.c ****   *            @arg @ref RCC_PERIPHCLK_TIM15   TIM15 peripheral clock   (1)(2)
 102:Drivers/STM32G0xx_HAL_Driver/Src/stm32g0xx_hal_rcc_ex.c ****   *            @arg @ref RCC_PERIPHCLK_USART2  USART2 peripheral clock     (2)
 103:Drivers/STM32G0xx_HAL_Driver/Src/stm32g0xx_hal_rcc_ex.c ****   *            @arg @ref RCC_PERIPHCLK_USART3  USART3 peripheral clock     (2)
 104:Drivers/STM32G0xx_HAL_Driver/Src/stm32g0xx_hal_rcc_ex.c ****   *            @arg @ref RCC_PERIPHCLK_FDCAN   FDCAN peripheral clock   (1)
 105:Drivers/STM32G0xx_HAL_Driver/Src/stm32g0xx_hal_rcc_ex.c ****   *            @arg @ref RCC_PERIPHCLK_USB     USB peripheral clock     (1)
 106:Drivers/STM32G0xx_HAL_Driver/Src/stm32g0xx_hal_rcc_ex.c ****   *
 107:Drivers/STM32G0xx_HAL_Driver/Src/stm32g0xx_hal_rcc_ex.c ****   * @note   (1) Peripherals are not available on all devices
 108:Drivers/STM32G0xx_HAL_Driver/Src/stm32g0xx_hal_rcc_ex.c ****   * @note   (2) Peripherals clock selection is not available on all devices
 109:Drivers/STM32G0xx_HAL_Driver/Src/stm32g0xx_hal_rcc_ex.c ****   * @note   Care must be taken when @ref HAL_RCCEx_PeriphCLKConfig() is used to select
 110:Drivers/STM32G0xx_HAL_Driver/Src/stm32g0xx_hal_rcc_ex.c ****   *         the RTC clock source: in this case the access to Backup domain is enabled.
 111:Drivers/STM32G0xx_HAL_Driver/Src/stm32g0xx_hal_rcc_ex.c ****   *
 112:Drivers/STM32G0xx_HAL_Driver/Src/stm32g0xx_hal_rcc_ex.c ****   * @retval HAL status
 113:Drivers/STM32G0xx_HAL_Driver/Src/stm32g0xx_hal_rcc_ex.c ****   */
 114:Drivers/STM32G0xx_HAL_Driver/Src/stm32g0xx_hal_rcc_ex.c **** HAL_StatusTypeDef HAL_RCCEx_PeriphCLKConfig(RCC_PeriphCLKInitTypeDef  *PeriphClkInit)
 115:Drivers/STM32G0xx_HAL_Driver/Src/stm32g0xx_hal_rcc_ex.c **** {
  28              		.loc 1 115 1 view -0
  29              		.cfi_startproc
  30              		@ args = 0, pretend = 0, frame = 8
  31              		@ frame_needed = 0, uses_anonymous_args = 0
  32              		.loc 1 115 1 is_stmt 0 view .LVU1
  33 0000 F0B5     		push	{r4, r5, r6, r7, lr}
  34              	.LCFI0:
  35              		.cfi_def_cfa_offset 20
  36              		.cfi_offset 4, -20
  37              		.cfi_offset 5, -16
  38              		.cfi_offset 6, -12
  39              		.cfi_offset 7, -8
  40              		.cfi_offset 14, -4
  41 0002 83B0     		sub	sp, sp, #12
  42              	.LCFI1:
  43              		.cfi_def_cfa_offset 32
  44 0004 0400     		movs	r4, r0
 116:Drivers/STM32G0xx_HAL_Driver/Src/stm32g0xx_hal_rcc_ex.c ****   uint32_t tmpregister;
  45              		.loc 1 116 3 is_stmt 1 view .LVU2
 117:Drivers/STM32G0xx_HAL_Driver/Src/stm32g0xx_hal_rcc_ex.c ****   uint32_t tickstart;
  46              		.loc 1 117 3 view .LVU3
 118:Drivers/STM32G0xx_HAL_Driver/Src/stm32g0xx_hal_rcc_ex.c ****   HAL_StatusTypeDef ret    = HAL_OK;   /* Intermediate status */
  47              		.loc 1 118 3 view .LVU4
  48              	.LVL1:
 119:Drivers/STM32G0xx_HAL_Driver/Src/stm32g0xx_hal_rcc_ex.c ****   HAL_StatusTypeDef status = HAL_OK;   /* Final status */
  49              		.loc 1 119 3 view .LVU5
 120:Drivers/STM32G0xx_HAL_Driver/Src/stm32g0xx_hal_rcc_ex.c **** 
 121:Drivers/STM32G0xx_HAL_Driver/Src/stm32g0xx_hal_rcc_ex.c ****   /* Check the parameters */
 122:Drivers/STM32G0xx_HAL_Driver/Src/stm32g0xx_hal_rcc_ex.c ****   assert_param(IS_RCC_PERIPHCLOCK(PeriphClkInit->PeriphClockSelection));
  50              		.loc 1 122 3 view .LVU6
ARM GAS  C:\Users\Xusniyor\AppData\Local\Temp\ccusJTJw.s 			page 4


 123:Drivers/STM32G0xx_HAL_Driver/Src/stm32g0xx_hal_rcc_ex.c **** 
 124:Drivers/STM32G0xx_HAL_Driver/Src/stm32g0xx_hal_rcc_ex.c ****   /*-------------------------- RTC clock source configuration ----------------------*/
 125:Drivers/STM32G0xx_HAL_Driver/Src/stm32g0xx_hal_rcc_ex.c ****   if ((PeriphClkInit->PeriphClockSelection & RCC_PERIPHCLK_RTC) == RCC_PERIPHCLK_RTC)
  51              		.loc 1 125 3 view .LVU7
  52              		.loc 1 125 6 is_stmt 0 view .LVU8
  53 0006 0368     		ldr	r3, [r0]
  54 0008 9B03     		lsls	r3, r3, #14
  55 000a 62D5     		bpl	.L20
  56              	.LBB2:
 126:Drivers/STM32G0xx_HAL_Driver/Src/stm32g0xx_hal_rcc_ex.c ****   {
 127:Drivers/STM32G0xx_HAL_Driver/Src/stm32g0xx_hal_rcc_ex.c ****     FlagStatus       pwrclkchanged = RESET;
  57              		.loc 1 127 5 is_stmt 1 view .LVU9
  58              	.LVL2:
 128:Drivers/STM32G0xx_HAL_Driver/Src/stm32g0xx_hal_rcc_ex.c **** 
 129:Drivers/STM32G0xx_HAL_Driver/Src/stm32g0xx_hal_rcc_ex.c ****     /* Check for RTC Parameters used to output RTCCLK */
 130:Drivers/STM32G0xx_HAL_Driver/Src/stm32g0xx_hal_rcc_ex.c ****     assert_param(IS_RCC_RTCCLKSOURCE(PeriphClkInit->RTCClockSelection));
  59              		.loc 1 130 5 view .LVU10
 131:Drivers/STM32G0xx_HAL_Driver/Src/stm32g0xx_hal_rcc_ex.c **** 
 132:Drivers/STM32G0xx_HAL_Driver/Src/stm32g0xx_hal_rcc_ex.c ****     /* Enable Power Clock */
 133:Drivers/STM32G0xx_HAL_Driver/Src/stm32g0xx_hal_rcc_ex.c ****     if (__HAL_RCC_PWR_IS_CLK_DISABLED())
  60              		.loc 1 133 5 view .LVU11
  61              		.loc 1 133 9 is_stmt 0 view .LVU12
  62 000c 6D4B     		ldr	r3, .L29
  63 000e DB6B     		ldr	r3, [r3, #60]
  64              		.loc 1 133 8 view .LVU13
  65 0010 DB00     		lsls	r3, r3, #3
  66 0012 1ED4     		bmi	.L21
 134:Drivers/STM32G0xx_HAL_Driver/Src/stm32g0xx_hal_rcc_ex.c ****     {
 135:Drivers/STM32G0xx_HAL_Driver/Src/stm32g0xx_hal_rcc_ex.c ****       __HAL_RCC_PWR_CLK_ENABLE();
  67              		.loc 1 135 7 is_stmt 1 view .LVU14
  68              	.LBB3:
  69              		.loc 1 135 7 view .LVU15
  70              		.loc 1 135 7 view .LVU16
  71 0014 6B4A     		ldr	r2, .L29
  72 0016 D16B     		ldr	r1, [r2, #60]
  73 0018 8020     		movs	r0, #128
  74              	.LVL3:
  75              		.loc 1 135 7 is_stmt 0 view .LVU17
  76 001a 4005     		lsls	r0, r0, #21
  77 001c 0143     		orrs	r1, r0
  78 001e D163     		str	r1, [r2, #60]
  79              		.loc 1 135 7 is_stmt 1 view .LVU18
  80 0020 D36B     		ldr	r3, [r2, #60]
  81 0022 0340     		ands	r3, r0
  82 0024 0193     		str	r3, [sp, #4]
  83              		.loc 1 135 7 view .LVU19
  84 0026 019B     		ldr	r3, [sp, #4]
  85              	.LBE3:
  86              		.loc 1 135 7 view .LVU20
 136:Drivers/STM32G0xx_HAL_Driver/Src/stm32g0xx_hal_rcc_ex.c ****       pwrclkchanged = SET;
  87              		.loc 1 136 7 view .LVU21
  88              	.LVL4:
  89              		.loc 1 136 21 is_stmt 0 view .LVU22
  90 0028 0126     		movs	r6, #1
  91              	.LVL5:
  92              	.L3:
 137:Drivers/STM32G0xx_HAL_Driver/Src/stm32g0xx_hal_rcc_ex.c ****     }
ARM GAS  C:\Users\Xusniyor\AppData\Local\Temp\ccusJTJw.s 			page 5


 138:Drivers/STM32G0xx_HAL_Driver/Src/stm32g0xx_hal_rcc_ex.c **** 
 139:Drivers/STM32G0xx_HAL_Driver/Src/stm32g0xx_hal_rcc_ex.c ****     /* Enable write access to Backup domain */
 140:Drivers/STM32G0xx_HAL_Driver/Src/stm32g0xx_hal_rcc_ex.c ****     SET_BIT(PWR->CR1, PWR_CR1_DBP);
  93              		.loc 1 140 5 is_stmt 1 view .LVU23
  94 002a 674A     		ldr	r2, .L29+4
  95 002c 1168     		ldr	r1, [r2]
  96 002e 8023     		movs	r3, #128
  97 0030 5B00     		lsls	r3, r3, #1
  98 0032 0B43     		orrs	r3, r1
  99 0034 1360     		str	r3, [r2]
 141:Drivers/STM32G0xx_HAL_Driver/Src/stm32g0xx_hal_rcc_ex.c **** 
 142:Drivers/STM32G0xx_HAL_Driver/Src/stm32g0xx_hal_rcc_ex.c ****     /* Wait for Backup domain Write protection disable */
 143:Drivers/STM32G0xx_HAL_Driver/Src/stm32g0xx_hal_rcc_ex.c ****     tickstart = HAL_GetTick();
 100              		.loc 1 143 5 view .LVU24
 101              		.loc 1 143 17 is_stmt 0 view .LVU25
 102 0036 FFF7FEFF 		bl	HAL_GetTick
 103              	.LVL6:
 104 003a 0500     		movs	r5, r0
 105              	.LVL7:
 144:Drivers/STM32G0xx_HAL_Driver/Src/stm32g0xx_hal_rcc_ex.c **** 
 145:Drivers/STM32G0xx_HAL_Driver/Src/stm32g0xx_hal_rcc_ex.c ****     while ((PWR->CR1 & PWR_CR1_DBP) == 0U)
 106              		.loc 1 145 5 is_stmt 1 view .LVU26
 107              	.L4:
 108              		.loc 1 145 11 view .LVU27
 109              		.loc 1 145 16 is_stmt 0 view .LVU28
 110 003c 624B     		ldr	r3, .L29+4
 111 003e 1B68     		ldr	r3, [r3]
 112              		.loc 1 145 11 view .LVU29
 113 0040 DB05     		lsls	r3, r3, #23
 114 0042 08D4     		bmi	.L24
 146:Drivers/STM32G0xx_HAL_Driver/Src/stm32g0xx_hal_rcc_ex.c ****     {
 147:Drivers/STM32G0xx_HAL_Driver/Src/stm32g0xx_hal_rcc_ex.c ****       if ((HAL_GetTick() - tickstart) > RCC_DBP_TIMEOUT_VALUE)
 115              		.loc 1 147 7 is_stmt 1 view .LVU30
 116              		.loc 1 147 12 is_stmt 0 view .LVU31
 117 0044 FFF7FEFF 		bl	HAL_GetTick
 118              	.LVL8:
 119              		.loc 1 147 26 view .LVU32
 120 0048 401B     		subs	r0, r0, r5
 121              		.loc 1 147 10 view .LVU33
 122 004a 0228     		cmp	r0, #2
 123 004c F6D9     		bls	.L4
 148:Drivers/STM32G0xx_HAL_Driver/Src/stm32g0xx_hal_rcc_ex.c ****       {
 149:Drivers/STM32G0xx_HAL_Driver/Src/stm32g0xx_hal_rcc_ex.c ****         ret = HAL_TIMEOUT;
 124              		.loc 1 149 13 view .LVU34
 125 004e 0325     		movs	r5, #3
 126              	.LVL9:
 127              		.loc 1 149 13 view .LVU35
 128 0050 02E0     		b	.L5
 129              	.LVL10:
 130              	.L21:
 127:Drivers/STM32G0xx_HAL_Driver/Src/stm32g0xx_hal_rcc_ex.c **** 
 131              		.loc 1 127 22 view .LVU36
 132 0052 0026     		movs	r6, #0
 133 0054 E9E7     		b	.L3
 134              	.LVL11:
 135              	.L24:
 127:Drivers/STM32G0xx_HAL_Driver/Src/stm32g0xx_hal_rcc_ex.c **** 
ARM GAS  C:\Users\Xusniyor\AppData\Local\Temp\ccusJTJw.s 			page 6


 136              		.loc 1 127 22 view .LVU37
 137              	.LBE2:
 118:Drivers/STM32G0xx_HAL_Driver/Src/stm32g0xx_hal_rcc_ex.c ****   HAL_StatusTypeDef status = HAL_OK;   /* Final status */
 138              		.loc 1 118 21 view .LVU38
 139 0056 0025     		movs	r5, #0
 140              	.LVL12:
 141              	.L5:
 142              	.LBB4:
 150:Drivers/STM32G0xx_HAL_Driver/Src/stm32g0xx_hal_rcc_ex.c ****         break;
 151:Drivers/STM32G0xx_HAL_Driver/Src/stm32g0xx_hal_rcc_ex.c ****       }
 152:Drivers/STM32G0xx_HAL_Driver/Src/stm32g0xx_hal_rcc_ex.c ****     }
 153:Drivers/STM32G0xx_HAL_Driver/Src/stm32g0xx_hal_rcc_ex.c **** 
 154:Drivers/STM32G0xx_HAL_Driver/Src/stm32g0xx_hal_rcc_ex.c ****     if (ret == HAL_OK)
 143              		.loc 1 154 5 is_stmt 1 view .LVU39
 144              		.loc 1 154 8 is_stmt 0 view .LVU40
 145 0058 002D     		cmp	r5, #0
 146 005a 23D1     		bne	.L7
 155:Drivers/STM32G0xx_HAL_Driver/Src/stm32g0xx_hal_rcc_ex.c ****     {
 156:Drivers/STM32G0xx_HAL_Driver/Src/stm32g0xx_hal_rcc_ex.c ****       /* Reset the Backup domain only if the RTC Clock source selection is modified from default */
 157:Drivers/STM32G0xx_HAL_Driver/Src/stm32g0xx_hal_rcc_ex.c ****       tmpregister = READ_BIT(RCC->BDCR, RCC_BDCR_RTCSEL);
 147              		.loc 1 157 7 is_stmt 1 view .LVU41
 148              		.loc 1 157 21 is_stmt 0 view .LVU42
 149 005c 594B     		ldr	r3, .L29
 150 005e D96D     		ldr	r1, [r3, #92]
 151              		.loc 1 157 19 view .LVU43
 152 0060 C022     		movs	r2, #192
 153 0062 9200     		lsls	r2, r2, #2
 154 0064 0B00     		movs	r3, r1
 155 0066 1340     		ands	r3, r2
 156              	.LVL13:
 158:Drivers/STM32G0xx_HAL_Driver/Src/stm32g0xx_hal_rcc_ex.c **** 
 159:Drivers/STM32G0xx_HAL_Driver/Src/stm32g0xx_hal_rcc_ex.c ****       /* Reset the Backup domain only if the RTC Clock source selection is modified */
 160:Drivers/STM32G0xx_HAL_Driver/Src/stm32g0xx_hal_rcc_ex.c ****       if ((tmpregister != RCC_RTCCLKSOURCE_NONE) && (tmpregister != PeriphClkInit->RTCClockSelectio
 157              		.loc 1 160 7 is_stmt 1 view .LVU44
 158              		.loc 1 160 10 is_stmt 0 view .LVU45
 159 0068 1142     		tst	r1, r2
 160 006a 10D0     		beq	.L8
 161              		.loc 1 160 50 discriminator 1 view .LVU46
 162 006c 626A     		ldr	r2, [r4, #36]
 163 006e 9A42     		cmp	r2, r3
 164 0070 0DD0     		beq	.L8
 161:Drivers/STM32G0xx_HAL_Driver/Src/stm32g0xx_hal_rcc_ex.c ****       {
 162:Drivers/STM32G0xx_HAL_Driver/Src/stm32g0xx_hal_rcc_ex.c ****         /* Store the content of BDCR register before the reset of Backup Domain */
 163:Drivers/STM32G0xx_HAL_Driver/Src/stm32g0xx_hal_rcc_ex.c ****         tmpregister = READ_BIT(RCC->BDCR, ~(RCC_BDCR_RTCSEL));
 165              		.loc 1 163 9 is_stmt 1 view .LVU47
 166              		.loc 1 163 23 is_stmt 0 view .LVU48
 167 0072 544A     		ldr	r2, .L29
 168 0074 D36D     		ldr	r3, [r2, #92]
 169              	.LVL14:
 170              		.loc 1 163 21 view .LVU49
 171 0076 5549     		ldr	r1, .L29+8
 172              	.LVL15:
 173              		.loc 1 163 21 view .LVU50
 174 0078 0B40     		ands	r3, r1
 175              	.LVL16:
 164:Drivers/STM32G0xx_HAL_Driver/Src/stm32g0xx_hal_rcc_ex.c ****         /* RTC Clock selection can be changed only if the Backup Domain is reset */
 165:Drivers/STM32G0xx_HAL_Driver/Src/stm32g0xx_hal_rcc_ex.c ****         __HAL_RCC_BACKUPRESET_FORCE();
ARM GAS  C:\Users\Xusniyor\AppData\Local\Temp\ccusJTJw.s 			page 7


 176              		.loc 1 165 9 is_stmt 1 view .LVU51
 177 007a D06D     		ldr	r0, [r2, #92]
 178 007c 8021     		movs	r1, #128
 179 007e 4902     		lsls	r1, r1, #9
 180 0080 0143     		orrs	r1, r0
 181 0082 D165     		str	r1, [r2, #92]
 166:Drivers/STM32G0xx_HAL_Driver/Src/stm32g0xx_hal_rcc_ex.c ****         __HAL_RCC_BACKUPRESET_RELEASE();
 182              		.loc 1 166 9 view .LVU52
 183 0084 D16D     		ldr	r1, [r2, #92]
 184 0086 5248     		ldr	r0, .L29+12
 185 0088 0140     		ands	r1, r0
 186 008a D165     		str	r1, [r2, #92]
 167:Drivers/STM32G0xx_HAL_Driver/Src/stm32g0xx_hal_rcc_ex.c ****         /* Restore the Content of BDCR register */
 168:Drivers/STM32G0xx_HAL_Driver/Src/stm32g0xx_hal_rcc_ex.c ****         RCC->BDCR = tmpregister;
 187              		.loc 1 168 9 view .LVU53
 188              		.loc 1 168 19 is_stmt 0 view .LVU54
 189 008c D365     		str	r3, [r2, #92]
 190              	.L8:
 169:Drivers/STM32G0xx_HAL_Driver/Src/stm32g0xx_hal_rcc_ex.c ****       }
 170:Drivers/STM32G0xx_HAL_Driver/Src/stm32g0xx_hal_rcc_ex.c **** 
 171:Drivers/STM32G0xx_HAL_Driver/Src/stm32g0xx_hal_rcc_ex.c ****       /* Wait for LSE reactivation if LSE was enable prior to Backup Domain reset */
 172:Drivers/STM32G0xx_HAL_Driver/Src/stm32g0xx_hal_rcc_ex.c ****       if (HAL_IS_BIT_SET(tmpregister, RCC_BDCR_LSEON))
 191              		.loc 1 172 7 is_stmt 1 view .LVU55
 192              		.loc 1 172 10 is_stmt 0 view .LVU56
 193 008e DB07     		lsls	r3, r3, #31
 194 0090 10D4     		bmi	.L25
 195              	.LVL17:
 196              	.L9:
 173:Drivers/STM32G0xx_HAL_Driver/Src/stm32g0xx_hal_rcc_ex.c ****       {
 174:Drivers/STM32G0xx_HAL_Driver/Src/stm32g0xx_hal_rcc_ex.c ****         /* Get Start Tick*/
 175:Drivers/STM32G0xx_HAL_Driver/Src/stm32g0xx_hal_rcc_ex.c ****         tickstart = HAL_GetTick();
 176:Drivers/STM32G0xx_HAL_Driver/Src/stm32g0xx_hal_rcc_ex.c **** 
 177:Drivers/STM32G0xx_HAL_Driver/Src/stm32g0xx_hal_rcc_ex.c ****         /* Wait till LSE is ready */
 178:Drivers/STM32G0xx_HAL_Driver/Src/stm32g0xx_hal_rcc_ex.c ****         while (READ_BIT(RCC->BDCR, RCC_BDCR_LSERDY) == 0U)
 179:Drivers/STM32G0xx_HAL_Driver/Src/stm32g0xx_hal_rcc_ex.c ****         {
 180:Drivers/STM32G0xx_HAL_Driver/Src/stm32g0xx_hal_rcc_ex.c ****           if ((HAL_GetTick() - tickstart) > RCC_LSE_TIMEOUT_VALUE)
 181:Drivers/STM32G0xx_HAL_Driver/Src/stm32g0xx_hal_rcc_ex.c ****           {
 182:Drivers/STM32G0xx_HAL_Driver/Src/stm32g0xx_hal_rcc_ex.c ****             ret = HAL_TIMEOUT;
 183:Drivers/STM32G0xx_HAL_Driver/Src/stm32g0xx_hal_rcc_ex.c ****             break;
 184:Drivers/STM32G0xx_HAL_Driver/Src/stm32g0xx_hal_rcc_ex.c ****           }
 185:Drivers/STM32G0xx_HAL_Driver/Src/stm32g0xx_hal_rcc_ex.c ****         }
 186:Drivers/STM32G0xx_HAL_Driver/Src/stm32g0xx_hal_rcc_ex.c ****       }
 187:Drivers/STM32G0xx_HAL_Driver/Src/stm32g0xx_hal_rcc_ex.c **** 
 188:Drivers/STM32G0xx_HAL_Driver/Src/stm32g0xx_hal_rcc_ex.c ****       if (ret == HAL_OK)
 197              		.loc 1 188 7 is_stmt 1 view .LVU57
 198              		.loc 1 188 10 is_stmt 0 view .LVU58
 199 0092 002D     		cmp	r5, #0
 200 0094 06D1     		bne	.L7
 189:Drivers/STM32G0xx_HAL_Driver/Src/stm32g0xx_hal_rcc_ex.c ****       {
 190:Drivers/STM32G0xx_HAL_Driver/Src/stm32g0xx_hal_rcc_ex.c ****         /* Apply new RTC clock source selection */
 191:Drivers/STM32G0xx_HAL_Driver/Src/stm32g0xx_hal_rcc_ex.c ****         __HAL_RCC_RTC_CONFIG(PeriphClkInit->RTCClockSelection);
 201              		.loc 1 191 9 is_stmt 1 view .LVU59
 202 0096 4B4A     		ldr	r2, .L29
 203 0098 D36D     		ldr	r3, [r2, #92]
 204 009a 4C49     		ldr	r1, .L29+8
 205 009c 0B40     		ands	r3, r1
 206 009e 616A     		ldr	r1, [r4, #36]
ARM GAS  C:\Users\Xusniyor\AppData\Local\Temp\ccusJTJw.s 			page 8


 207 00a0 0B43     		orrs	r3, r1
 208 00a2 D365     		str	r3, [r2, #92]
 209              	.L7:
 210              	.LVL18:
 192:Drivers/STM32G0xx_HAL_Driver/Src/stm32g0xx_hal_rcc_ex.c ****       }
 193:Drivers/STM32G0xx_HAL_Driver/Src/stm32g0xx_hal_rcc_ex.c ****       else
 194:Drivers/STM32G0xx_HAL_Driver/Src/stm32g0xx_hal_rcc_ex.c ****       {
 195:Drivers/STM32G0xx_HAL_Driver/Src/stm32g0xx_hal_rcc_ex.c ****         /* set overall return value */
 196:Drivers/STM32G0xx_HAL_Driver/Src/stm32g0xx_hal_rcc_ex.c ****         status = ret;
 197:Drivers/STM32G0xx_HAL_Driver/Src/stm32g0xx_hal_rcc_ex.c ****       }
 198:Drivers/STM32G0xx_HAL_Driver/Src/stm32g0xx_hal_rcc_ex.c ****     }
 199:Drivers/STM32G0xx_HAL_Driver/Src/stm32g0xx_hal_rcc_ex.c ****     else
 200:Drivers/STM32G0xx_HAL_Driver/Src/stm32g0xx_hal_rcc_ex.c ****     {
 201:Drivers/STM32G0xx_HAL_Driver/Src/stm32g0xx_hal_rcc_ex.c ****       /* set overall return value */
 202:Drivers/STM32G0xx_HAL_Driver/Src/stm32g0xx_hal_rcc_ex.c ****       status = ret;
 203:Drivers/STM32G0xx_HAL_Driver/Src/stm32g0xx_hal_rcc_ex.c ****     }
 204:Drivers/STM32G0xx_HAL_Driver/Src/stm32g0xx_hal_rcc_ex.c **** 
 205:Drivers/STM32G0xx_HAL_Driver/Src/stm32g0xx_hal_rcc_ex.c ****     /* Restore clock configuration if changed */
 206:Drivers/STM32G0xx_HAL_Driver/Src/stm32g0xx_hal_rcc_ex.c ****     if (pwrclkchanged == SET)
 211              		.loc 1 206 5 view .LVU60
 212              		.loc 1 206 8 is_stmt 0 view .LVU61
 213 00a4 012E     		cmp	r6, #1
 214 00a6 15D1     		bne	.L2
 207:Drivers/STM32G0xx_HAL_Driver/Src/stm32g0xx_hal_rcc_ex.c ****     {
 208:Drivers/STM32G0xx_HAL_Driver/Src/stm32g0xx_hal_rcc_ex.c ****       __HAL_RCC_PWR_CLK_DISABLE();
 215              		.loc 1 208 7 is_stmt 1 view .LVU62
 216 00a8 464A     		ldr	r2, .L29
 217 00aa D36B     		ldr	r3, [r2, #60]
 218 00ac 4949     		ldr	r1, .L29+16
 219 00ae 0B40     		ands	r3, r1
 220 00b0 D363     		str	r3, [r2, #60]
 221 00b2 0FE0     		b	.L2
 222              	.LVL19:
 223              	.L25:
 175:Drivers/STM32G0xx_HAL_Driver/Src/stm32g0xx_hal_rcc_ex.c **** 
 224              		.loc 1 175 9 view .LVU63
 175:Drivers/STM32G0xx_HAL_Driver/Src/stm32g0xx_hal_rcc_ex.c **** 
 225              		.loc 1 175 21 is_stmt 0 view .LVU64
 226 00b4 FFF7FEFF 		bl	HAL_GetTick
 227              	.LVL20:
 228 00b8 0700     		movs	r7, r0
 229              	.LVL21:
 178:Drivers/STM32G0xx_HAL_Driver/Src/stm32g0xx_hal_rcc_ex.c ****         {
 230              		.loc 1 178 9 is_stmt 1 view .LVU65
 231              	.L10:
 178:Drivers/STM32G0xx_HAL_Driver/Src/stm32g0xx_hal_rcc_ex.c ****         {
 232              		.loc 1 178 15 view .LVU66
 178:Drivers/STM32G0xx_HAL_Driver/Src/stm32g0xx_hal_rcc_ex.c ****         {
 233              		.loc 1 178 16 is_stmt 0 view .LVU67
 234 00ba 424B     		ldr	r3, .L29
 235 00bc DB6D     		ldr	r3, [r3, #92]
 178:Drivers/STM32G0xx_HAL_Driver/Src/stm32g0xx_hal_rcc_ex.c ****         {
 236              		.loc 1 178 15 view .LVU68
 237 00be 9B07     		lsls	r3, r3, #30
 238 00c0 E7D4     		bmi	.L9
 180:Drivers/STM32G0xx_HAL_Driver/Src/stm32g0xx_hal_rcc_ex.c ****           {
 239              		.loc 1 180 11 is_stmt 1 view .LVU69
ARM GAS  C:\Users\Xusniyor\AppData\Local\Temp\ccusJTJw.s 			page 9


 180:Drivers/STM32G0xx_HAL_Driver/Src/stm32g0xx_hal_rcc_ex.c ****           {
 240              		.loc 1 180 16 is_stmt 0 view .LVU70
 241 00c2 FFF7FEFF 		bl	HAL_GetTick
 242              	.LVL22:
 180:Drivers/STM32G0xx_HAL_Driver/Src/stm32g0xx_hal_rcc_ex.c ****           {
 243              		.loc 1 180 30 view .LVU71
 244 00c6 C01B     		subs	r0, r0, r7
 180:Drivers/STM32G0xx_HAL_Driver/Src/stm32g0xx_hal_rcc_ex.c ****           {
 245              		.loc 1 180 14 view .LVU72
 246 00c8 434B     		ldr	r3, .L29+20
 247 00ca 9842     		cmp	r0, r3
 248 00cc F5D9     		bls	.L10
 182:Drivers/STM32G0xx_HAL_Driver/Src/stm32g0xx_hal_rcc_ex.c ****             break;
 249              		.loc 1 182 17 view .LVU73
 250 00ce 0325     		movs	r5, #3
 251              	.LVL23:
 182:Drivers/STM32G0xx_HAL_Driver/Src/stm32g0xx_hal_rcc_ex.c ****             break;
 252              		.loc 1 182 17 view .LVU74
 253 00d0 DFE7     		b	.L9
 254              	.LVL24:
 255              	.L20:
 182:Drivers/STM32G0xx_HAL_Driver/Src/stm32g0xx_hal_rcc_ex.c ****             break;
 256              		.loc 1 182 17 view .LVU75
 257              	.LBE4:
 119:Drivers/STM32G0xx_HAL_Driver/Src/stm32g0xx_hal_rcc_ex.c **** 
 258              		.loc 1 119 21 view .LVU76
 259 00d2 0025     		movs	r5, #0
 260              	.LVL25:
 261              	.L2:
 209:Drivers/STM32G0xx_HAL_Driver/Src/stm32g0xx_hal_rcc_ex.c ****     }
 210:Drivers/STM32G0xx_HAL_Driver/Src/stm32g0xx_hal_rcc_ex.c ****   }
 211:Drivers/STM32G0xx_HAL_Driver/Src/stm32g0xx_hal_rcc_ex.c **** 
 212:Drivers/STM32G0xx_HAL_Driver/Src/stm32g0xx_hal_rcc_ex.c ****   /*-------------------------- USART1 clock source configuration -------------------*/
 213:Drivers/STM32G0xx_HAL_Driver/Src/stm32g0xx_hal_rcc_ex.c ****   if (((PeriphClkInit->PeriphClockSelection) & RCC_PERIPHCLK_USART1) == RCC_PERIPHCLK_USART1)
 262              		.loc 1 213 3 is_stmt 1 view .LVU77
 263              		.loc 1 213 6 is_stmt 0 view .LVU78
 264 00d4 2368     		ldr	r3, [r4]
 265 00d6 DB07     		lsls	r3, r3, #31
 266 00d8 06D5     		bpl	.L12
 214:Drivers/STM32G0xx_HAL_Driver/Src/stm32g0xx_hal_rcc_ex.c ****   {
 215:Drivers/STM32G0xx_HAL_Driver/Src/stm32g0xx_hal_rcc_ex.c ****     /* Check the parameters */
 216:Drivers/STM32G0xx_HAL_Driver/Src/stm32g0xx_hal_rcc_ex.c ****     assert_param(IS_RCC_USART1CLKSOURCE(PeriphClkInit->Usart1ClockSelection));
 267              		.loc 1 216 5 is_stmt 1 view .LVU79
 217:Drivers/STM32G0xx_HAL_Driver/Src/stm32g0xx_hal_rcc_ex.c **** 
 218:Drivers/STM32G0xx_HAL_Driver/Src/stm32g0xx_hal_rcc_ex.c ****     /* Configure the USART1 clock source */
 219:Drivers/STM32G0xx_HAL_Driver/Src/stm32g0xx_hal_rcc_ex.c ****     __HAL_RCC_USART1_CONFIG(PeriphClkInit->Usart1ClockSelection);
 268              		.loc 1 219 5 view .LVU80
 269 00da 3A4A     		ldr	r2, .L29
 270 00dc 536D     		ldr	r3, [r2, #84]
 271 00de 0321     		movs	r1, #3
 272 00e0 8B43     		bics	r3, r1
 273 00e2 6168     		ldr	r1, [r4, #4]
 274 00e4 0B43     		orrs	r3, r1
 275 00e6 5365     		str	r3, [r2, #84]
 276              	.L12:
 220:Drivers/STM32G0xx_HAL_Driver/Src/stm32g0xx_hal_rcc_ex.c ****   }
 221:Drivers/STM32G0xx_HAL_Driver/Src/stm32g0xx_hal_rcc_ex.c **** 
ARM GAS  C:\Users\Xusniyor\AppData\Local\Temp\ccusJTJw.s 			page 10


 222:Drivers/STM32G0xx_HAL_Driver/Src/stm32g0xx_hal_rcc_ex.c **** #if defined(RCC_CCIPR_USART2SEL)
 223:Drivers/STM32G0xx_HAL_Driver/Src/stm32g0xx_hal_rcc_ex.c ****   /*-------------------------- USART2 clock source configuration -------------------*/
 224:Drivers/STM32G0xx_HAL_Driver/Src/stm32g0xx_hal_rcc_ex.c ****   if (((PeriphClkInit->PeriphClockSelection) & RCC_PERIPHCLK_USART2) == RCC_PERIPHCLK_USART2)
 225:Drivers/STM32G0xx_HAL_Driver/Src/stm32g0xx_hal_rcc_ex.c ****   {
 226:Drivers/STM32G0xx_HAL_Driver/Src/stm32g0xx_hal_rcc_ex.c ****     /* Check the parameters */
 227:Drivers/STM32G0xx_HAL_Driver/Src/stm32g0xx_hal_rcc_ex.c ****     assert_param(IS_RCC_USART2CLKSOURCE(PeriphClkInit->Usart2ClockSelection));
 228:Drivers/STM32G0xx_HAL_Driver/Src/stm32g0xx_hal_rcc_ex.c **** 
 229:Drivers/STM32G0xx_HAL_Driver/Src/stm32g0xx_hal_rcc_ex.c ****     /* Configure the USART2 clock source */
 230:Drivers/STM32G0xx_HAL_Driver/Src/stm32g0xx_hal_rcc_ex.c ****     __HAL_RCC_USART2_CONFIG(PeriphClkInit->Usart2ClockSelection);
 231:Drivers/STM32G0xx_HAL_Driver/Src/stm32g0xx_hal_rcc_ex.c ****   }
 232:Drivers/STM32G0xx_HAL_Driver/Src/stm32g0xx_hal_rcc_ex.c **** #endif /* RCC_CCIPR_USART2SEL */
 233:Drivers/STM32G0xx_HAL_Driver/Src/stm32g0xx_hal_rcc_ex.c **** 
 234:Drivers/STM32G0xx_HAL_Driver/Src/stm32g0xx_hal_rcc_ex.c **** #if defined(RCC_CCIPR_USART3SEL)
 235:Drivers/STM32G0xx_HAL_Driver/Src/stm32g0xx_hal_rcc_ex.c ****   /*-------------------------- USART3 clock source configuration -------------------*/
 236:Drivers/STM32G0xx_HAL_Driver/Src/stm32g0xx_hal_rcc_ex.c ****   if (((PeriphClkInit->PeriphClockSelection) & RCC_PERIPHCLK_USART3) == RCC_PERIPHCLK_USART3)
 237:Drivers/STM32G0xx_HAL_Driver/Src/stm32g0xx_hal_rcc_ex.c ****   {
 238:Drivers/STM32G0xx_HAL_Driver/Src/stm32g0xx_hal_rcc_ex.c ****     /* Check the parameters */
 239:Drivers/STM32G0xx_HAL_Driver/Src/stm32g0xx_hal_rcc_ex.c ****     assert_param(IS_RCC_USART3CLKSOURCE(PeriphClkInit->Usart3ClockSelection));
 240:Drivers/STM32G0xx_HAL_Driver/Src/stm32g0xx_hal_rcc_ex.c **** 
 241:Drivers/STM32G0xx_HAL_Driver/Src/stm32g0xx_hal_rcc_ex.c ****     /* Configure the USART3 clock source */
 242:Drivers/STM32G0xx_HAL_Driver/Src/stm32g0xx_hal_rcc_ex.c ****     __HAL_RCC_USART3_CONFIG(PeriphClkInit->Usart3ClockSelection);
 243:Drivers/STM32G0xx_HAL_Driver/Src/stm32g0xx_hal_rcc_ex.c ****   }
 244:Drivers/STM32G0xx_HAL_Driver/Src/stm32g0xx_hal_rcc_ex.c **** #endif /* RCC_CCIPR_USART3SEL */
 245:Drivers/STM32G0xx_HAL_Driver/Src/stm32g0xx_hal_rcc_ex.c **** 
 246:Drivers/STM32G0xx_HAL_Driver/Src/stm32g0xx_hal_rcc_ex.c **** #if defined(LPUART1)
 247:Drivers/STM32G0xx_HAL_Driver/Src/stm32g0xx_hal_rcc_ex.c ****   /*-------------------------- LPUART1 clock source configuration ------------------*/
 248:Drivers/STM32G0xx_HAL_Driver/Src/stm32g0xx_hal_rcc_ex.c ****   if (((PeriphClkInit->PeriphClockSelection) & RCC_PERIPHCLK_LPUART1) == RCC_PERIPHCLK_LPUART1)
 277              		.loc 1 248 3 view .LVU81
 278              		.loc 1 248 6 is_stmt 0 view .LVU82
 279 00e8 2368     		ldr	r3, [r4]
 280 00ea DB06     		lsls	r3, r3, #27
 281 00ec 06D5     		bpl	.L13
 249:Drivers/STM32G0xx_HAL_Driver/Src/stm32g0xx_hal_rcc_ex.c ****   {
 250:Drivers/STM32G0xx_HAL_Driver/Src/stm32g0xx_hal_rcc_ex.c ****     /* Check the parameters */
 251:Drivers/STM32G0xx_HAL_Driver/Src/stm32g0xx_hal_rcc_ex.c ****     assert_param(IS_RCC_LPUART1CLKSOURCE(PeriphClkInit->Lpuart1ClockSelection));
 282              		.loc 1 251 5 is_stmt 1 view .LVU83
 252:Drivers/STM32G0xx_HAL_Driver/Src/stm32g0xx_hal_rcc_ex.c **** 
 253:Drivers/STM32G0xx_HAL_Driver/Src/stm32g0xx_hal_rcc_ex.c ****     /* Configure the LPUART1 clock source */
 254:Drivers/STM32G0xx_HAL_Driver/Src/stm32g0xx_hal_rcc_ex.c ****     __HAL_RCC_LPUART1_CONFIG(PeriphClkInit->Lpuart1ClockSelection);
 283              		.loc 1 254 5 view .LVU84
 284 00ee 354A     		ldr	r2, .L29
 285 00f0 536D     		ldr	r3, [r2, #84]
 286 00f2 3A49     		ldr	r1, .L29+24
 287 00f4 0B40     		ands	r3, r1
 288 00f6 A168     		ldr	r1, [r4, #8]
 289 00f8 0B43     		orrs	r3, r1
 290 00fa 5365     		str	r3, [r2, #84]
 291              	.L13:
 255:Drivers/STM32G0xx_HAL_Driver/Src/stm32g0xx_hal_rcc_ex.c ****   }
 256:Drivers/STM32G0xx_HAL_Driver/Src/stm32g0xx_hal_rcc_ex.c **** #endif /* LPUART1 */
 257:Drivers/STM32G0xx_HAL_Driver/Src/stm32g0xx_hal_rcc_ex.c **** 
 258:Drivers/STM32G0xx_HAL_Driver/Src/stm32g0xx_hal_rcc_ex.c **** #if defined(LPUART2)
 259:Drivers/STM32G0xx_HAL_Driver/Src/stm32g0xx_hal_rcc_ex.c ****   /*-------------------------- LPUART2 clock source configuration ------------------*/
 260:Drivers/STM32G0xx_HAL_Driver/Src/stm32g0xx_hal_rcc_ex.c ****   if (((PeriphClkInit->PeriphClockSelection) & RCC_PERIPHCLK_LPUART2) == RCC_PERIPHCLK_LPUART2)
 261:Drivers/STM32G0xx_HAL_Driver/Src/stm32g0xx_hal_rcc_ex.c ****   {
 262:Drivers/STM32G0xx_HAL_Driver/Src/stm32g0xx_hal_rcc_ex.c ****     /* Check the parameters */
 263:Drivers/STM32G0xx_HAL_Driver/Src/stm32g0xx_hal_rcc_ex.c ****     assert_param(IS_RCC_LPUART2CLKSOURCE(PeriphClkInit->Lpuart2ClockSelection));
ARM GAS  C:\Users\Xusniyor\AppData\Local\Temp\ccusJTJw.s 			page 11


 264:Drivers/STM32G0xx_HAL_Driver/Src/stm32g0xx_hal_rcc_ex.c **** 
 265:Drivers/STM32G0xx_HAL_Driver/Src/stm32g0xx_hal_rcc_ex.c ****     /* Configure the LPUART clock source */
 266:Drivers/STM32G0xx_HAL_Driver/Src/stm32g0xx_hal_rcc_ex.c ****     __HAL_RCC_LPUART2_CONFIG(PeriphClkInit->Lpuart2ClockSelection);
 267:Drivers/STM32G0xx_HAL_Driver/Src/stm32g0xx_hal_rcc_ex.c ****   }
 268:Drivers/STM32G0xx_HAL_Driver/Src/stm32g0xx_hal_rcc_ex.c **** #endif /* LPUART2 */
 269:Drivers/STM32G0xx_HAL_Driver/Src/stm32g0xx_hal_rcc_ex.c **** 
 270:Drivers/STM32G0xx_HAL_Driver/Src/stm32g0xx_hal_rcc_ex.c **** #if defined(RCC_CCIPR_LPTIM1SEL)
 271:Drivers/STM32G0xx_HAL_Driver/Src/stm32g0xx_hal_rcc_ex.c ****   /*-------------------------- LPTIM1 clock source configuration -------------------*/
 272:Drivers/STM32G0xx_HAL_Driver/Src/stm32g0xx_hal_rcc_ex.c ****   if (((PeriphClkInit->PeriphClockSelection) & RCC_PERIPHCLK_LPTIM1) == (RCC_PERIPHCLK_LPTIM1))
 292              		.loc 1 272 3 view .LVU85
 293              		.loc 1 272 6 is_stmt 0 view .LVU86
 294 00fc 2368     		ldr	r3, [r4]
 295 00fe 9B05     		lsls	r3, r3, #22
 296 0100 06D5     		bpl	.L14
 273:Drivers/STM32G0xx_HAL_Driver/Src/stm32g0xx_hal_rcc_ex.c ****   {
 274:Drivers/STM32G0xx_HAL_Driver/Src/stm32g0xx_hal_rcc_ex.c ****     assert_param(IS_RCC_LPTIM1CLKSOURCE(PeriphClkInit->Lptim1ClockSelection));
 297              		.loc 1 274 5 is_stmt 1 view .LVU87
 275:Drivers/STM32G0xx_HAL_Driver/Src/stm32g0xx_hal_rcc_ex.c ****     __HAL_RCC_LPTIM1_CONFIG(PeriphClkInit->Lptim1ClockSelection);
 298              		.loc 1 275 5 view .LVU88
 299 0102 304A     		ldr	r2, .L29
 300 0104 536D     		ldr	r3, [r2, #84]
 301 0106 3649     		ldr	r1, .L29+28
 302 0108 0B40     		ands	r3, r1
 303 010a 6169     		ldr	r1, [r4, #20]
 304 010c 0B43     		orrs	r3, r1
 305 010e 5365     		str	r3, [r2, #84]
 306              	.L14:
 276:Drivers/STM32G0xx_HAL_Driver/Src/stm32g0xx_hal_rcc_ex.c ****   }
 277:Drivers/STM32G0xx_HAL_Driver/Src/stm32g0xx_hal_rcc_ex.c **** #endif /* RCC_CCIPR_LPTIM1SEL */
 278:Drivers/STM32G0xx_HAL_Driver/Src/stm32g0xx_hal_rcc_ex.c **** 
 279:Drivers/STM32G0xx_HAL_Driver/Src/stm32g0xx_hal_rcc_ex.c **** #if defined(RCC_CCIPR_LPTIM2SEL)
 280:Drivers/STM32G0xx_HAL_Driver/Src/stm32g0xx_hal_rcc_ex.c ****   /*-------------------------- LPTIM2 clock source configuration -------------------*/
 281:Drivers/STM32G0xx_HAL_Driver/Src/stm32g0xx_hal_rcc_ex.c ****   if (((PeriphClkInit->PeriphClockSelection) & RCC_PERIPHCLK_LPTIM2) == (RCC_PERIPHCLK_LPTIM2))
 307              		.loc 1 281 3 view .LVU89
 308              		.loc 1 281 6 is_stmt 0 view .LVU90
 309 0110 2368     		ldr	r3, [r4]
 310 0112 5B05     		lsls	r3, r3, #21
 311 0114 06D5     		bpl	.L15
 282:Drivers/STM32G0xx_HAL_Driver/Src/stm32g0xx_hal_rcc_ex.c ****   {
 283:Drivers/STM32G0xx_HAL_Driver/Src/stm32g0xx_hal_rcc_ex.c ****     assert_param(IS_RCC_LPTIM2CLKSOURCE(PeriphClkInit->Lptim2ClockSelection));
 312              		.loc 1 283 5 is_stmt 1 view .LVU91
 284:Drivers/STM32G0xx_HAL_Driver/Src/stm32g0xx_hal_rcc_ex.c ****     __HAL_RCC_LPTIM2_CONFIG(PeriphClkInit->Lptim2ClockSelection);
 313              		.loc 1 284 5 view .LVU92
 314 0116 2B4A     		ldr	r2, .L29
 315 0118 536D     		ldr	r3, [r2, #84]
 316 011a 3249     		ldr	r1, .L29+32
 317 011c 0B40     		ands	r3, r1
 318 011e A169     		ldr	r1, [r4, #24]
 319 0120 0B43     		orrs	r3, r1
 320 0122 5365     		str	r3, [r2, #84]
 321              	.L15:
 285:Drivers/STM32G0xx_HAL_Driver/Src/stm32g0xx_hal_rcc_ex.c ****   }
 286:Drivers/STM32G0xx_HAL_Driver/Src/stm32g0xx_hal_rcc_ex.c **** #endif /* RCC_CCIPR_LPTIM2SEL */
 287:Drivers/STM32G0xx_HAL_Driver/Src/stm32g0xx_hal_rcc_ex.c **** 
 288:Drivers/STM32G0xx_HAL_Driver/Src/stm32g0xx_hal_rcc_ex.c ****   /*-------------------------- I2C1 clock source configuration ---------------------*/
 289:Drivers/STM32G0xx_HAL_Driver/Src/stm32g0xx_hal_rcc_ex.c ****   if (((PeriphClkInit->PeriphClockSelection) & RCC_PERIPHCLK_I2C1) == RCC_PERIPHCLK_I2C1)
 322              		.loc 1 289 3 view .LVU93
ARM GAS  C:\Users\Xusniyor\AppData\Local\Temp\ccusJTJw.s 			page 12


 323              		.loc 1 289 6 is_stmt 0 view .LVU94
 324 0124 2368     		ldr	r3, [r4]
 325 0126 9B06     		lsls	r3, r3, #26
 326 0128 06D5     		bpl	.L16
 290:Drivers/STM32G0xx_HAL_Driver/Src/stm32g0xx_hal_rcc_ex.c ****   {
 291:Drivers/STM32G0xx_HAL_Driver/Src/stm32g0xx_hal_rcc_ex.c ****     /* Check the parameters */
 292:Drivers/STM32G0xx_HAL_Driver/Src/stm32g0xx_hal_rcc_ex.c ****     assert_param(IS_RCC_I2C1CLKSOURCE(PeriphClkInit->I2c1ClockSelection));
 327              		.loc 1 292 5 is_stmt 1 view .LVU95
 293:Drivers/STM32G0xx_HAL_Driver/Src/stm32g0xx_hal_rcc_ex.c **** 
 294:Drivers/STM32G0xx_HAL_Driver/Src/stm32g0xx_hal_rcc_ex.c ****     /* Configure the I2C1 clock source */
 295:Drivers/STM32G0xx_HAL_Driver/Src/stm32g0xx_hal_rcc_ex.c ****     __HAL_RCC_I2C1_CONFIG(PeriphClkInit->I2c1ClockSelection);
 328              		.loc 1 295 5 view .LVU96
 329 012a 264A     		ldr	r2, .L29
 330 012c 536D     		ldr	r3, [r2, #84]
 331 012e 2E49     		ldr	r1, .L29+36
 332 0130 0B40     		ands	r3, r1
 333 0132 E168     		ldr	r1, [r4, #12]
 334 0134 0B43     		orrs	r3, r1
 335 0136 5365     		str	r3, [r2, #84]
 336              	.L16:
 296:Drivers/STM32G0xx_HAL_Driver/Src/stm32g0xx_hal_rcc_ex.c ****   }
 297:Drivers/STM32G0xx_HAL_Driver/Src/stm32g0xx_hal_rcc_ex.c **** 
 298:Drivers/STM32G0xx_HAL_Driver/Src/stm32g0xx_hal_rcc_ex.c **** #if defined(RCC_CCIPR_I2C2SEL)
 299:Drivers/STM32G0xx_HAL_Driver/Src/stm32g0xx_hal_rcc_ex.c ****   /*-------------------------- I2C2 clock source configuration ---------------------*/
 300:Drivers/STM32G0xx_HAL_Driver/Src/stm32g0xx_hal_rcc_ex.c ****   if (((PeriphClkInit->PeriphClockSelection) & RCC_PERIPHCLK_I2C2) == RCC_PERIPHCLK_I2C2)
 301:Drivers/STM32G0xx_HAL_Driver/Src/stm32g0xx_hal_rcc_ex.c ****   {
 302:Drivers/STM32G0xx_HAL_Driver/Src/stm32g0xx_hal_rcc_ex.c ****     /* Check the parameters */
 303:Drivers/STM32G0xx_HAL_Driver/Src/stm32g0xx_hal_rcc_ex.c ****     assert_param(IS_RCC_I2C2CLKSOURCE(PeriphClkInit->I2c2ClockSelection));
 304:Drivers/STM32G0xx_HAL_Driver/Src/stm32g0xx_hal_rcc_ex.c **** 
 305:Drivers/STM32G0xx_HAL_Driver/Src/stm32g0xx_hal_rcc_ex.c ****     /* Configure the I2C2 clock source */
 306:Drivers/STM32G0xx_HAL_Driver/Src/stm32g0xx_hal_rcc_ex.c ****     __HAL_RCC_I2C2_CONFIG(PeriphClkInit->I2c2ClockSelection);
 307:Drivers/STM32G0xx_HAL_Driver/Src/stm32g0xx_hal_rcc_ex.c ****   }
 308:Drivers/STM32G0xx_HAL_Driver/Src/stm32g0xx_hal_rcc_ex.c **** #endif /* (RCC_CCIPR_I2C2SEL */
 309:Drivers/STM32G0xx_HAL_Driver/Src/stm32g0xx_hal_rcc_ex.c **** 
 310:Drivers/STM32G0xx_HAL_Driver/Src/stm32g0xx_hal_rcc_ex.c **** #if defined(RNG)
 311:Drivers/STM32G0xx_HAL_Driver/Src/stm32g0xx_hal_rcc_ex.c ****   /*-------------------------- RNG clock source configuration ----------------------*/
 312:Drivers/STM32G0xx_HAL_Driver/Src/stm32g0xx_hal_rcc_ex.c ****   if (((PeriphClkInit->PeriphClockSelection) & RCC_PERIPHCLK_RNG) == (RCC_PERIPHCLK_RNG))
 313:Drivers/STM32G0xx_HAL_Driver/Src/stm32g0xx_hal_rcc_ex.c ****   {
 314:Drivers/STM32G0xx_HAL_Driver/Src/stm32g0xx_hal_rcc_ex.c ****     assert_param(IS_RCC_RNGCLKSOURCE(PeriphClkInit->RngClockSelection));
 315:Drivers/STM32G0xx_HAL_Driver/Src/stm32g0xx_hal_rcc_ex.c ****     __HAL_RCC_RNG_CONFIG(PeriphClkInit->RngClockSelection);
 316:Drivers/STM32G0xx_HAL_Driver/Src/stm32g0xx_hal_rcc_ex.c **** 
 317:Drivers/STM32G0xx_HAL_Driver/Src/stm32g0xx_hal_rcc_ex.c ****     if (PeriphClkInit->RngClockSelection == RCC_RNGCLKSOURCE_PLL)
 318:Drivers/STM32G0xx_HAL_Driver/Src/stm32g0xx_hal_rcc_ex.c ****     {
 319:Drivers/STM32G0xx_HAL_Driver/Src/stm32g0xx_hal_rcc_ex.c ****       /* Enable PLLQCLK output */
 320:Drivers/STM32G0xx_HAL_Driver/Src/stm32g0xx_hal_rcc_ex.c ****       __HAL_RCC_PLLCLKOUT_ENABLE(RCC_PLLQCLK);
 321:Drivers/STM32G0xx_HAL_Driver/Src/stm32g0xx_hal_rcc_ex.c ****     }
 322:Drivers/STM32G0xx_HAL_Driver/Src/stm32g0xx_hal_rcc_ex.c ****   }
 323:Drivers/STM32G0xx_HAL_Driver/Src/stm32g0xx_hal_rcc_ex.c **** #endif /* RNG */
 324:Drivers/STM32G0xx_HAL_Driver/Src/stm32g0xx_hal_rcc_ex.c ****   /*-------------------------- ADC clock source configuration ----------------------*/
 325:Drivers/STM32G0xx_HAL_Driver/Src/stm32g0xx_hal_rcc_ex.c ****   if (((PeriphClkInit->PeriphClockSelection) & RCC_PERIPHCLK_ADC) == RCC_PERIPHCLK_ADC)
 337              		.loc 1 325 3 view .LVU97
 338              		.loc 1 325 6 is_stmt 0 view .LVU98
 339 0138 2368     		ldr	r3, [r4]
 340 013a 5B04     		lsls	r3, r3, #17
 341 013c 0BD5     		bpl	.L17
 326:Drivers/STM32G0xx_HAL_Driver/Src/stm32g0xx_hal_rcc_ex.c ****   {
 327:Drivers/STM32G0xx_HAL_Driver/Src/stm32g0xx_hal_rcc_ex.c ****     /* Check the parameters */
ARM GAS  C:\Users\Xusniyor\AppData\Local\Temp\ccusJTJw.s 			page 13


 328:Drivers/STM32G0xx_HAL_Driver/Src/stm32g0xx_hal_rcc_ex.c ****     assert_param(IS_RCC_ADCCLKSOURCE(PeriphClkInit->AdcClockSelection));
 342              		.loc 1 328 5 is_stmt 1 view .LVU99
 329:Drivers/STM32G0xx_HAL_Driver/Src/stm32g0xx_hal_rcc_ex.c **** 
 330:Drivers/STM32G0xx_HAL_Driver/Src/stm32g0xx_hal_rcc_ex.c ****     /* Configure the ADC interface clock source */
 331:Drivers/STM32G0xx_HAL_Driver/Src/stm32g0xx_hal_rcc_ex.c ****     __HAL_RCC_ADC_CONFIG(PeriphClkInit->AdcClockSelection);
 343              		.loc 1 331 5 view .LVU100
 344 013e 214A     		ldr	r2, .L29
 345 0140 536D     		ldr	r3, [r2, #84]
 346 0142 9B00     		lsls	r3, r3, #2
 347 0144 9B08     		lsrs	r3, r3, #2
 348 0146 E169     		ldr	r1, [r4, #28]
 349 0148 0B43     		orrs	r3, r1
 350 014a 5365     		str	r3, [r2, #84]
 332:Drivers/STM32G0xx_HAL_Driver/Src/stm32g0xx_hal_rcc_ex.c **** 
 333:Drivers/STM32G0xx_HAL_Driver/Src/stm32g0xx_hal_rcc_ex.c ****     if (PeriphClkInit->AdcClockSelection == RCC_ADCCLKSOURCE_PLLADC)
 351              		.loc 1 333 5 view .LVU101
 352              		.loc 1 333 8 is_stmt 0 view .LVU102
 353 014c 8023     		movs	r3, #128
 354 014e DB05     		lsls	r3, r3, #23
 355 0150 E269     		ldr	r2, [r4, #28]
 356 0152 9A42     		cmp	r2, r3
 357 0154 20D0     		beq	.L26
 358              	.L17:
 334:Drivers/STM32G0xx_HAL_Driver/Src/stm32g0xx_hal_rcc_ex.c ****     {
 335:Drivers/STM32G0xx_HAL_Driver/Src/stm32g0xx_hal_rcc_ex.c ****       /* Enable PLLPCLK output */
 336:Drivers/STM32G0xx_HAL_Driver/Src/stm32g0xx_hal_rcc_ex.c ****       __HAL_RCC_PLLCLKOUT_ENABLE(RCC_PLLPCLK);
 337:Drivers/STM32G0xx_HAL_Driver/Src/stm32g0xx_hal_rcc_ex.c ****     }
 338:Drivers/STM32G0xx_HAL_Driver/Src/stm32g0xx_hal_rcc_ex.c ****   }
 339:Drivers/STM32G0xx_HAL_Driver/Src/stm32g0xx_hal_rcc_ex.c **** 
 340:Drivers/STM32G0xx_HAL_Driver/Src/stm32g0xx_hal_rcc_ex.c **** #if defined(CEC)
 341:Drivers/STM32G0xx_HAL_Driver/Src/stm32g0xx_hal_rcc_ex.c ****   /*-------------------------- CEC clock source configuration ---------------------*/
 342:Drivers/STM32G0xx_HAL_Driver/Src/stm32g0xx_hal_rcc_ex.c ****   if (((PeriphClkInit->PeriphClockSelection) & RCC_PERIPHCLK_CEC) == RCC_PERIPHCLK_CEC)
 343:Drivers/STM32G0xx_HAL_Driver/Src/stm32g0xx_hal_rcc_ex.c ****   {
 344:Drivers/STM32G0xx_HAL_Driver/Src/stm32g0xx_hal_rcc_ex.c ****     /* Check the parameters */
 345:Drivers/STM32G0xx_HAL_Driver/Src/stm32g0xx_hal_rcc_ex.c ****     assert_param(IS_RCC_CECCLKSOURCE(PeriphClkInit->CecClockSelection));
 346:Drivers/STM32G0xx_HAL_Driver/Src/stm32g0xx_hal_rcc_ex.c **** 
 347:Drivers/STM32G0xx_HAL_Driver/Src/stm32g0xx_hal_rcc_ex.c ****     /* Configure the CEC clock source */
 348:Drivers/STM32G0xx_HAL_Driver/Src/stm32g0xx_hal_rcc_ex.c ****     __HAL_RCC_CEC_CONFIG(PeriphClkInit->CecClockSelection);
 349:Drivers/STM32G0xx_HAL_Driver/Src/stm32g0xx_hal_rcc_ex.c ****   }
 350:Drivers/STM32G0xx_HAL_Driver/Src/stm32g0xx_hal_rcc_ex.c **** #endif /* CEC */
 351:Drivers/STM32G0xx_HAL_Driver/Src/stm32g0xx_hal_rcc_ex.c **** 
 352:Drivers/STM32G0xx_HAL_Driver/Src/stm32g0xx_hal_rcc_ex.c **** #if defined(RCC_CCIPR_TIM1SEL)
 353:Drivers/STM32G0xx_HAL_Driver/Src/stm32g0xx_hal_rcc_ex.c ****   /*-------------------------- TIM1 clock source configuration ---------------------*/
 354:Drivers/STM32G0xx_HAL_Driver/Src/stm32g0xx_hal_rcc_ex.c ****   if (((PeriphClkInit->PeriphClockSelection) & RCC_PERIPHCLK_TIM1) == RCC_PERIPHCLK_TIM1)
 359              		.loc 1 354 3 is_stmt 1 view .LVU103
 360              		.loc 1 354 6 is_stmt 0 view .LVU104
 361 0156 2368     		ldr	r3, [r4]
 362 0158 9B02     		lsls	r3, r3, #10
 363 015a 0BD5     		bpl	.L18
 355:Drivers/STM32G0xx_HAL_Driver/Src/stm32g0xx_hal_rcc_ex.c ****   {
 356:Drivers/STM32G0xx_HAL_Driver/Src/stm32g0xx_hal_rcc_ex.c ****     /* Check the parameters */
 357:Drivers/STM32G0xx_HAL_Driver/Src/stm32g0xx_hal_rcc_ex.c ****     assert_param(IS_RCC_TIM1CLKSOURCE(PeriphClkInit->Tim1ClockSelection));
 364              		.loc 1 357 5 is_stmt 1 view .LVU105
 358:Drivers/STM32G0xx_HAL_Driver/Src/stm32g0xx_hal_rcc_ex.c **** 
 359:Drivers/STM32G0xx_HAL_Driver/Src/stm32g0xx_hal_rcc_ex.c ****     /* Configure the TIM1 clock source */
 360:Drivers/STM32G0xx_HAL_Driver/Src/stm32g0xx_hal_rcc_ex.c ****     __HAL_RCC_TIM1_CONFIG(PeriphClkInit->Tim1ClockSelection);
 365              		.loc 1 360 5 view .LVU106
ARM GAS  C:\Users\Xusniyor\AppData\Local\Temp\ccusJTJw.s 			page 14


 366 015c 194A     		ldr	r2, .L29
 367 015e 536D     		ldr	r3, [r2, #84]
 368 0160 2249     		ldr	r1, .L29+40
 369 0162 0B40     		ands	r3, r1
 370 0164 216A     		ldr	r1, [r4, #32]
 371 0166 0B43     		orrs	r3, r1
 372 0168 5365     		str	r3, [r2, #84]
 361:Drivers/STM32G0xx_HAL_Driver/Src/stm32g0xx_hal_rcc_ex.c **** 
 362:Drivers/STM32G0xx_HAL_Driver/Src/stm32g0xx_hal_rcc_ex.c ****     if (PeriphClkInit->Tim1ClockSelection == RCC_TIM1CLKSOURCE_PLL)
 373              		.loc 1 362 5 view .LVU107
 374              		.loc 1 362 8 is_stmt 0 view .LVU108
 375 016a 8023     		movs	r3, #128
 376 016c DB03     		lsls	r3, r3, #15
 377 016e 226A     		ldr	r2, [r4, #32]
 378 0170 9A42     		cmp	r2, r3
 379 0172 18D0     		beq	.L27
 380              	.L18:
 363:Drivers/STM32G0xx_HAL_Driver/Src/stm32g0xx_hal_rcc_ex.c ****     {
 364:Drivers/STM32G0xx_HAL_Driver/Src/stm32g0xx_hal_rcc_ex.c ****       /* Enable PLLQCLK output */
 365:Drivers/STM32G0xx_HAL_Driver/Src/stm32g0xx_hal_rcc_ex.c ****       __HAL_RCC_PLLCLKOUT_ENABLE(RCC_PLLQCLK);
 366:Drivers/STM32G0xx_HAL_Driver/Src/stm32g0xx_hal_rcc_ex.c ****     }
 367:Drivers/STM32G0xx_HAL_Driver/Src/stm32g0xx_hal_rcc_ex.c ****   }
 368:Drivers/STM32G0xx_HAL_Driver/Src/stm32g0xx_hal_rcc_ex.c **** #endif /* RCC_CCIPR_TIM1SEL */
 369:Drivers/STM32G0xx_HAL_Driver/Src/stm32g0xx_hal_rcc_ex.c **** 
 370:Drivers/STM32G0xx_HAL_Driver/Src/stm32g0xx_hal_rcc_ex.c **** #if defined(RCC_CCIPR_TIM15SEL)
 371:Drivers/STM32G0xx_HAL_Driver/Src/stm32g0xx_hal_rcc_ex.c ****   /*-------------------------- TIM15 clock source configuration ---------------------*/
 372:Drivers/STM32G0xx_HAL_Driver/Src/stm32g0xx_hal_rcc_ex.c ****   if (((PeriphClkInit->PeriphClockSelection) & RCC_PERIPHCLK_TIM15) == RCC_PERIPHCLK_TIM15)
 373:Drivers/STM32G0xx_HAL_Driver/Src/stm32g0xx_hal_rcc_ex.c ****   {
 374:Drivers/STM32G0xx_HAL_Driver/Src/stm32g0xx_hal_rcc_ex.c ****     /* Check the parameters */
 375:Drivers/STM32G0xx_HAL_Driver/Src/stm32g0xx_hal_rcc_ex.c ****     assert_param(IS_RCC_TIM15CLKSOURCE(PeriphClkInit->Tim15ClockSelection));
 376:Drivers/STM32G0xx_HAL_Driver/Src/stm32g0xx_hal_rcc_ex.c **** 
 377:Drivers/STM32G0xx_HAL_Driver/Src/stm32g0xx_hal_rcc_ex.c ****     /* Configure the TIM15 clock source */
 378:Drivers/STM32G0xx_HAL_Driver/Src/stm32g0xx_hal_rcc_ex.c ****     __HAL_RCC_TIM15_CONFIG(PeriphClkInit->Tim15ClockSelection);
 379:Drivers/STM32G0xx_HAL_Driver/Src/stm32g0xx_hal_rcc_ex.c **** 
 380:Drivers/STM32G0xx_HAL_Driver/Src/stm32g0xx_hal_rcc_ex.c ****     if (PeriphClkInit->Tim15ClockSelection == RCC_TIM15CLKSOURCE_PLL)
 381:Drivers/STM32G0xx_HAL_Driver/Src/stm32g0xx_hal_rcc_ex.c ****     {
 382:Drivers/STM32G0xx_HAL_Driver/Src/stm32g0xx_hal_rcc_ex.c ****       /* Enable PLLQCLK output */
 383:Drivers/STM32G0xx_HAL_Driver/Src/stm32g0xx_hal_rcc_ex.c ****       __HAL_RCC_PLLCLKOUT_ENABLE(RCC_PLLQCLK);
 384:Drivers/STM32G0xx_HAL_Driver/Src/stm32g0xx_hal_rcc_ex.c ****     }
 385:Drivers/STM32G0xx_HAL_Driver/Src/stm32g0xx_hal_rcc_ex.c ****   }
 386:Drivers/STM32G0xx_HAL_Driver/Src/stm32g0xx_hal_rcc_ex.c **** #endif /* RCC_CCIPR_TIM15SEL */
 387:Drivers/STM32G0xx_HAL_Driver/Src/stm32g0xx_hal_rcc_ex.c **** 
 388:Drivers/STM32G0xx_HAL_Driver/Src/stm32g0xx_hal_rcc_ex.c ****   /*-------------------------- I2S1 clock source configuration ---------------------*/
 389:Drivers/STM32G0xx_HAL_Driver/Src/stm32g0xx_hal_rcc_ex.c ****   if (((PeriphClkInit->PeriphClockSelection) & RCC_PERIPHCLK_I2S1) == RCC_PERIPHCLK_I2S1)
 381              		.loc 1 389 3 is_stmt 1 view .LVU109
 382              		.loc 1 389 6 is_stmt 0 view .LVU110
 383 0174 2368     		ldr	r3, [r4]
 384 0176 1B05     		lsls	r3, r3, #20
 385 0178 0BD5     		bpl	.L19
 390:Drivers/STM32G0xx_HAL_Driver/Src/stm32g0xx_hal_rcc_ex.c ****   {
 391:Drivers/STM32G0xx_HAL_Driver/Src/stm32g0xx_hal_rcc_ex.c ****     /* Check the parameters */
 392:Drivers/STM32G0xx_HAL_Driver/Src/stm32g0xx_hal_rcc_ex.c ****     assert_param(IS_RCC_I2S1CLKSOURCE(PeriphClkInit->I2s1ClockSelection));
 386              		.loc 1 392 5 is_stmt 1 view .LVU111
 393:Drivers/STM32G0xx_HAL_Driver/Src/stm32g0xx_hal_rcc_ex.c **** 
 394:Drivers/STM32G0xx_HAL_Driver/Src/stm32g0xx_hal_rcc_ex.c ****     /* Configure the I2S1 clock source */
 395:Drivers/STM32G0xx_HAL_Driver/Src/stm32g0xx_hal_rcc_ex.c ****     __HAL_RCC_I2S1_CONFIG(PeriphClkInit->I2s1ClockSelection);
 387              		.loc 1 395 5 view .LVU112
ARM GAS  C:\Users\Xusniyor\AppData\Local\Temp\ccusJTJw.s 			page 15


 388 017a 124A     		ldr	r2, .L29
 389 017c 536D     		ldr	r3, [r2, #84]
 390 017e 1C49     		ldr	r1, .L29+44
 391 0180 0B40     		ands	r3, r1
 392 0182 2169     		ldr	r1, [r4, #16]
 393 0184 0B43     		orrs	r3, r1
 394 0186 5365     		str	r3, [r2, #84]
 396:Drivers/STM32G0xx_HAL_Driver/Src/stm32g0xx_hal_rcc_ex.c **** 
 397:Drivers/STM32G0xx_HAL_Driver/Src/stm32g0xx_hal_rcc_ex.c ****     if (PeriphClkInit->I2s1ClockSelection == RCC_I2S1CLKSOURCE_PLL)
 395              		.loc 1 397 5 view .LVU113
 396              		.loc 1 397 22 is_stmt 0 view .LVU114
 397 0188 2269     		ldr	r2, [r4, #16]
 398              		.loc 1 397 8 view .LVU115
 399 018a 8023     		movs	r3, #128
 400 018c DB01     		lsls	r3, r3, #7
 401 018e 9A42     		cmp	r2, r3
 402 0190 10D0     		beq	.L28
 403              	.L19:
 398:Drivers/STM32G0xx_HAL_Driver/Src/stm32g0xx_hal_rcc_ex.c ****     {
 399:Drivers/STM32G0xx_HAL_Driver/Src/stm32g0xx_hal_rcc_ex.c ****       /* Enable PLLPCLK output */
 400:Drivers/STM32G0xx_HAL_Driver/Src/stm32g0xx_hal_rcc_ex.c ****       __HAL_RCC_PLLCLKOUT_ENABLE(RCC_PLLPCLK);
 401:Drivers/STM32G0xx_HAL_Driver/Src/stm32g0xx_hal_rcc_ex.c ****     }
 402:Drivers/STM32G0xx_HAL_Driver/Src/stm32g0xx_hal_rcc_ex.c ****   }
 403:Drivers/STM32G0xx_HAL_Driver/Src/stm32g0xx_hal_rcc_ex.c **** 
 404:Drivers/STM32G0xx_HAL_Driver/Src/stm32g0xx_hal_rcc_ex.c **** #if defined(RCC_CCIPR2_I2S2SEL)
 405:Drivers/STM32G0xx_HAL_Driver/Src/stm32g0xx_hal_rcc_ex.c ****   /*-------------------------- I2S2 clock source configuration ---------------------*/
 406:Drivers/STM32G0xx_HAL_Driver/Src/stm32g0xx_hal_rcc_ex.c ****   if (((PeriphClkInit->PeriphClockSelection) & RCC_PERIPHCLK_I2S2) == RCC_PERIPHCLK_I2S2)
 407:Drivers/STM32G0xx_HAL_Driver/Src/stm32g0xx_hal_rcc_ex.c ****   {
 408:Drivers/STM32G0xx_HAL_Driver/Src/stm32g0xx_hal_rcc_ex.c ****     /* Check the parameters */
 409:Drivers/STM32G0xx_HAL_Driver/Src/stm32g0xx_hal_rcc_ex.c ****     assert_param(IS_RCC_I2S2CLKSOURCE(PeriphClkInit->I2s2ClockSelection));
 410:Drivers/STM32G0xx_HAL_Driver/Src/stm32g0xx_hal_rcc_ex.c **** 
 411:Drivers/STM32G0xx_HAL_Driver/Src/stm32g0xx_hal_rcc_ex.c ****     /* Configure the I2S2 clock source */
 412:Drivers/STM32G0xx_HAL_Driver/Src/stm32g0xx_hal_rcc_ex.c ****     __HAL_RCC_I2S2_CONFIG(PeriphClkInit->I2s2ClockSelection);
 413:Drivers/STM32G0xx_HAL_Driver/Src/stm32g0xx_hal_rcc_ex.c **** 
 414:Drivers/STM32G0xx_HAL_Driver/Src/stm32g0xx_hal_rcc_ex.c ****     if (PeriphClkInit->I2s2ClockSelection == RCC_I2S2CLKSOURCE_PLL)
 415:Drivers/STM32G0xx_HAL_Driver/Src/stm32g0xx_hal_rcc_ex.c ****     {
 416:Drivers/STM32G0xx_HAL_Driver/Src/stm32g0xx_hal_rcc_ex.c ****       /* Enable PLLPCLK output */
 417:Drivers/STM32G0xx_HAL_Driver/Src/stm32g0xx_hal_rcc_ex.c ****       __HAL_RCC_PLLCLKOUT_ENABLE(RCC_PLLPCLK);
 418:Drivers/STM32G0xx_HAL_Driver/Src/stm32g0xx_hal_rcc_ex.c ****     }
 419:Drivers/STM32G0xx_HAL_Driver/Src/stm32g0xx_hal_rcc_ex.c ****   }
 420:Drivers/STM32G0xx_HAL_Driver/Src/stm32g0xx_hal_rcc_ex.c **** #endif /* RCC_CCIPR2_I2S2SEL */
 421:Drivers/STM32G0xx_HAL_Driver/Src/stm32g0xx_hal_rcc_ex.c **** 
 422:Drivers/STM32G0xx_HAL_Driver/Src/stm32g0xx_hal_rcc_ex.c **** #if defined(STM32G0C1xx) || defined(STM32G0B1xx)  || defined(STM32G0B0xx)
 423:Drivers/STM32G0xx_HAL_Driver/Src/stm32g0xx_hal_rcc_ex.c ****   /*-------------------------- USB clock source configuration ---------------------*/
 424:Drivers/STM32G0xx_HAL_Driver/Src/stm32g0xx_hal_rcc_ex.c ****   if (((PeriphClkInit->PeriphClockSelection) & RCC_PERIPHCLK_USB) == RCC_PERIPHCLK_USB)
 425:Drivers/STM32G0xx_HAL_Driver/Src/stm32g0xx_hal_rcc_ex.c ****   {
 426:Drivers/STM32G0xx_HAL_Driver/Src/stm32g0xx_hal_rcc_ex.c ****     /* Check the parameters */
 427:Drivers/STM32G0xx_HAL_Driver/Src/stm32g0xx_hal_rcc_ex.c ****     assert_param(IS_RCC_USBCLKSOURCE(PeriphClkInit->UsbClockSelection));
 428:Drivers/STM32G0xx_HAL_Driver/Src/stm32g0xx_hal_rcc_ex.c **** 
 429:Drivers/STM32G0xx_HAL_Driver/Src/stm32g0xx_hal_rcc_ex.c ****     /* Configure the USB clock source */
 430:Drivers/STM32G0xx_HAL_Driver/Src/stm32g0xx_hal_rcc_ex.c ****     __HAL_RCC_USB_CONFIG(PeriphClkInit->UsbClockSelection);
 431:Drivers/STM32G0xx_HAL_Driver/Src/stm32g0xx_hal_rcc_ex.c **** 
 432:Drivers/STM32G0xx_HAL_Driver/Src/stm32g0xx_hal_rcc_ex.c ****     if (PeriphClkInit->UsbClockSelection == RCC_USBCLKSOURCE_PLL)
 433:Drivers/STM32G0xx_HAL_Driver/Src/stm32g0xx_hal_rcc_ex.c ****     {
 434:Drivers/STM32G0xx_HAL_Driver/Src/stm32g0xx_hal_rcc_ex.c ****       /* Enable PLLQCLK output */
 435:Drivers/STM32G0xx_HAL_Driver/Src/stm32g0xx_hal_rcc_ex.c ****       __HAL_RCC_PLLCLKOUT_ENABLE(RCC_PLLQCLK);
 436:Drivers/STM32G0xx_HAL_Driver/Src/stm32g0xx_hal_rcc_ex.c ****     }
ARM GAS  C:\Users\Xusniyor\AppData\Local\Temp\ccusJTJw.s 			page 16


 437:Drivers/STM32G0xx_HAL_Driver/Src/stm32g0xx_hal_rcc_ex.c ****   }
 438:Drivers/STM32G0xx_HAL_Driver/Src/stm32g0xx_hal_rcc_ex.c **** #endif /* STM32G0C1xx || STM32G0B1xx || STM32G0B0xx */
 439:Drivers/STM32G0xx_HAL_Driver/Src/stm32g0xx_hal_rcc_ex.c **** 
 440:Drivers/STM32G0xx_HAL_Driver/Src/stm32g0xx_hal_rcc_ex.c **** #if defined(FDCAN1) || defined(FDCAN2)
 441:Drivers/STM32G0xx_HAL_Driver/Src/stm32g0xx_hal_rcc_ex.c ****   /*-------------------------- FDCAN clock source configuration ---------------------*/
 442:Drivers/STM32G0xx_HAL_Driver/Src/stm32g0xx_hal_rcc_ex.c ****   if (((PeriphClkInit->PeriphClockSelection) & RCC_PERIPHCLK_FDCAN) == RCC_PERIPHCLK_FDCAN)
 443:Drivers/STM32G0xx_HAL_Driver/Src/stm32g0xx_hal_rcc_ex.c ****   {
 444:Drivers/STM32G0xx_HAL_Driver/Src/stm32g0xx_hal_rcc_ex.c ****     /* Check the parameters */
 445:Drivers/STM32G0xx_HAL_Driver/Src/stm32g0xx_hal_rcc_ex.c ****     assert_param(IS_RCC_FDCANCLKSOURCE(PeriphClkInit->FdcanClockSelection));
 446:Drivers/STM32G0xx_HAL_Driver/Src/stm32g0xx_hal_rcc_ex.c **** 
 447:Drivers/STM32G0xx_HAL_Driver/Src/stm32g0xx_hal_rcc_ex.c ****     /* Configure the FDCAN clock source */
 448:Drivers/STM32G0xx_HAL_Driver/Src/stm32g0xx_hal_rcc_ex.c ****     __HAL_RCC_FDCAN_CONFIG(PeriphClkInit->FdcanClockSelection);
 449:Drivers/STM32G0xx_HAL_Driver/Src/stm32g0xx_hal_rcc_ex.c **** 
 450:Drivers/STM32G0xx_HAL_Driver/Src/stm32g0xx_hal_rcc_ex.c ****     if (PeriphClkInit->FdcanClockSelection == RCC_FDCANCLKSOURCE_PLL)
 451:Drivers/STM32G0xx_HAL_Driver/Src/stm32g0xx_hal_rcc_ex.c ****     {
 452:Drivers/STM32G0xx_HAL_Driver/Src/stm32g0xx_hal_rcc_ex.c ****       /* Enable PLLQCLK output */
 453:Drivers/STM32G0xx_HAL_Driver/Src/stm32g0xx_hal_rcc_ex.c ****       __HAL_RCC_PLLCLKOUT_ENABLE(RCC_PLLQCLK);
 454:Drivers/STM32G0xx_HAL_Driver/Src/stm32g0xx_hal_rcc_ex.c ****     }
 455:Drivers/STM32G0xx_HAL_Driver/Src/stm32g0xx_hal_rcc_ex.c ****   }
 456:Drivers/STM32G0xx_HAL_Driver/Src/stm32g0xx_hal_rcc_ex.c **** #endif /* FDCAN1 || FDCAN2 */
 457:Drivers/STM32G0xx_HAL_Driver/Src/stm32g0xx_hal_rcc_ex.c **** 
 458:Drivers/STM32G0xx_HAL_Driver/Src/stm32g0xx_hal_rcc_ex.c ****   return status;
 404              		.loc 1 458 3 is_stmt 1 view .LVU116
 459:Drivers/STM32G0xx_HAL_Driver/Src/stm32g0xx_hal_rcc_ex.c **** }
 405              		.loc 1 459 1 is_stmt 0 view .LVU117
 406 0192 2800     		movs	r0, r5
 407 0194 03B0     		add	sp, sp, #12
 408              		@ sp needed
 409              	.LVL26:
 410              	.LVL27:
 411              		.loc 1 459 1 view .LVU118
 412 0196 F0BD     		pop	{r4, r5, r6, r7, pc}
 413              	.LVL28:
 414              	.L26:
 336:Drivers/STM32G0xx_HAL_Driver/Src/stm32g0xx_hal_rcc_ex.c ****     }
 415              		.loc 1 336 7 is_stmt 1 view .LVU119
 416 0198 0A4A     		ldr	r2, .L29
 417 019a D168     		ldr	r1, [r2, #12]
 418 019c 8023     		movs	r3, #128
 419 019e 5B02     		lsls	r3, r3, #9
 420 01a0 0B43     		orrs	r3, r1
 421 01a2 D360     		str	r3, [r2, #12]
 422 01a4 D7E7     		b	.L17
 423              	.L27:
 365:Drivers/STM32G0xx_HAL_Driver/Src/stm32g0xx_hal_rcc_ex.c ****     }
 424              		.loc 1 365 7 view .LVU120
 425 01a6 074A     		ldr	r2, .L29
 426 01a8 D168     		ldr	r1, [r2, #12]
 427 01aa 8023     		movs	r3, #128
 428 01ac 5B04     		lsls	r3, r3, #17
 429 01ae 0B43     		orrs	r3, r1
 430 01b0 D360     		str	r3, [r2, #12]
 431 01b2 DFE7     		b	.L18
 432              	.L28:
 400:Drivers/STM32G0xx_HAL_Driver/Src/stm32g0xx_hal_rcc_ex.c ****     }
 433              		.loc 1 400 7 view .LVU121
 434 01b4 034A     		ldr	r2, .L29
ARM GAS  C:\Users\Xusniyor\AppData\Local\Temp\ccusJTJw.s 			page 17


 435 01b6 D168     		ldr	r1, [r2, #12]
 436 01b8 8023     		movs	r3, #128
 437 01ba 5B02     		lsls	r3, r3, #9
 438 01bc 0B43     		orrs	r3, r1
 439 01be D360     		str	r3, [r2, #12]
 440 01c0 E7E7     		b	.L19
 441              	.L30:
 442 01c2 C046     		.align	2
 443              	.L29:
 444 01c4 00100240 		.word	1073876992
 445 01c8 00700040 		.word	1073770496
 446 01cc FFFCFFFF 		.word	-769
 447 01d0 FFFFFEFF 		.word	-65537
 448 01d4 FFFFFFEF 		.word	-268435457
 449 01d8 88130000 		.word	5000
 450 01dc FFF3FFFF 		.word	-3073
 451 01e0 FFFFF3FF 		.word	-786433
 452 01e4 FFFFCFFF 		.word	-3145729
 453 01e8 FFCFFFFF 		.word	-12289
 454 01ec FFFFBFFF 		.word	-4194305
 455 01f0 FF3FFFFF 		.word	-49153
 456              		.cfi_endproc
 457              	.LFE297:
 459              		.section	.text.HAL_RCCEx_GetPeriphCLKConfig,"ax",%progbits
 460              		.align	1
 461              		.global	HAL_RCCEx_GetPeriphCLKConfig
 462              		.syntax unified
 463              		.code	16
 464              		.thumb_func
 466              	HAL_RCCEx_GetPeriphCLKConfig:
 467              	.LVL29:
 468              	.LFB298:
 460:Drivers/STM32G0xx_HAL_Driver/Src/stm32g0xx_hal_rcc_ex.c **** 
 461:Drivers/STM32G0xx_HAL_Driver/Src/stm32g0xx_hal_rcc_ex.c **** /**
 462:Drivers/STM32G0xx_HAL_Driver/Src/stm32g0xx_hal_rcc_ex.c ****   * @brief  Get the RCC_ClkInitStruct according to the internal RCC configuration registers.
 463:Drivers/STM32G0xx_HAL_Driver/Src/stm32g0xx_hal_rcc_ex.c ****   * @param  PeriphClkInit pointer to an RCC_PeriphCLKInitTypeDef structure that
 464:Drivers/STM32G0xx_HAL_Driver/Src/stm32g0xx_hal_rcc_ex.c ****   *         returns the configuration information for the Extended Peripherals
 465:Drivers/STM32G0xx_HAL_Driver/Src/stm32g0xx_hal_rcc_ex.c ****   *         clocks: I2C1, I2S1, USART1, RTC, ADC,
 466:Drivers/STM32G0xx_HAL_Driver/Src/stm32g0xx_hal_rcc_ex.c ****   *         LPTIM1 (1), LPTIM2 (1), TIM1 (2), TIM15 (1)(2), USART2 (2), LPUART1 (1), CEC (1) and RN
 467:Drivers/STM32G0xx_HAL_Driver/Src/stm32g0xx_hal_rcc_ex.c ****   * @note (1) Peripheral is not available on all devices
 468:Drivers/STM32G0xx_HAL_Driver/Src/stm32g0xx_hal_rcc_ex.c ****   * @note (2) Peripheral clock selection is not available on all devices
 469:Drivers/STM32G0xx_HAL_Driver/Src/stm32g0xx_hal_rcc_ex.c ****   * @retval None
 470:Drivers/STM32G0xx_HAL_Driver/Src/stm32g0xx_hal_rcc_ex.c ****   */
 471:Drivers/STM32G0xx_HAL_Driver/Src/stm32g0xx_hal_rcc_ex.c **** void HAL_RCCEx_GetPeriphCLKConfig(RCC_PeriphCLKInitTypeDef  *PeriphClkInit)
 472:Drivers/STM32G0xx_HAL_Driver/Src/stm32g0xx_hal_rcc_ex.c **** {
 469              		.loc 1 472 1 view -0
 470              		.cfi_startproc
 471              		@ args = 0, pretend = 0, frame = 0
 472              		@ frame_needed = 0, uses_anonymous_args = 0
 473              		@ link register save eliminated.
 473:Drivers/STM32G0xx_HAL_Driver/Src/stm32g0xx_hal_rcc_ex.c ****   /* Set all possible values for the extended clock type parameter------------*/
 474:Drivers/STM32G0xx_HAL_Driver/Src/stm32g0xx_hal_rcc_ex.c ****   PeriphClkInit->PeriphClockSelection = RCC_PERIPHCLK_USART1 | RCC_PERIPHCLK_I2C1 | RCC_PERIPHCLK_I
 474              		.loc 1 474 3 view .LVU123
 475              		.loc 1 474 39 is_stmt 0 view .LVU124
 476 0000 1A4B     		ldr	r3, .L32
 477 0002 0360     		str	r3, [r0]
 475:Drivers/STM32G0xx_HAL_Driver/Src/stm32g0xx_hal_rcc_ex.c ****                                         RCC_PERIPHCLK_ADC     | RCC_PERIPHCLK_RTC ;
ARM GAS  C:\Users\Xusniyor\AppData\Local\Temp\ccusJTJw.s 			page 18


 476:Drivers/STM32G0xx_HAL_Driver/Src/stm32g0xx_hal_rcc_ex.c **** 
 477:Drivers/STM32G0xx_HAL_Driver/Src/stm32g0xx_hal_rcc_ex.c **** #if defined(RCC_CCIPR_LPTIM1SEL) && defined(RCC_CCIPR_LPTIM2SEL)
 478:Drivers/STM32G0xx_HAL_Driver/Src/stm32g0xx_hal_rcc_ex.c ****   PeriphClkInit->PeriphClockSelection |=  RCC_PERIPHCLK_LPTIM2  | RCC_PERIPHCLK_LPTIM1;
 478              		.loc 1 478 3 is_stmt 1 view .LVU125
 479              		.loc 1 478 39 is_stmt 0 view .LVU126
 480 0004 1A4B     		ldr	r3, .L32+4
 481 0006 0360     		str	r3, [r0]
 479:Drivers/STM32G0xx_HAL_Driver/Src/stm32g0xx_hal_rcc_ex.c **** #endif /* RCC_CCIPR_LPTIM1SEL && RCC_CCIPR_LPTIM2SEL */
 480:Drivers/STM32G0xx_HAL_Driver/Src/stm32g0xx_hal_rcc_ex.c **** #if defined(RCC_CCIPR_RNGSEL)
 481:Drivers/STM32G0xx_HAL_Driver/Src/stm32g0xx_hal_rcc_ex.c ****   PeriphClkInit->PeriphClockSelection |=  RCC_PERIPHCLK_RNG;
 482:Drivers/STM32G0xx_HAL_Driver/Src/stm32g0xx_hal_rcc_ex.c **** #endif /* RCC_CCIPR_RNGSEL */
 483:Drivers/STM32G0xx_HAL_Driver/Src/stm32g0xx_hal_rcc_ex.c **** #if defined(RCC_CCIPR_LPUART1SEL)
 484:Drivers/STM32G0xx_HAL_Driver/Src/stm32g0xx_hal_rcc_ex.c ****   PeriphClkInit->PeriphClockSelection |=  RCC_PERIPHCLK_LPUART1;
 482              		.loc 1 484 3 is_stmt 1 view .LVU127
 483              		.loc 1 484 39 is_stmt 0 view .LVU128
 484 0008 1A4B     		ldr	r3, .L32+8
 485 000a 0360     		str	r3, [r0]
 485:Drivers/STM32G0xx_HAL_Driver/Src/stm32g0xx_hal_rcc_ex.c **** #endif /* RCC_CCIPR_LPUART1SEL */
 486:Drivers/STM32G0xx_HAL_Driver/Src/stm32g0xx_hal_rcc_ex.c **** #if defined(RCC_CCIPR_LPUART2SEL)
 487:Drivers/STM32G0xx_HAL_Driver/Src/stm32g0xx_hal_rcc_ex.c ****   PeriphClkInit->PeriphClockSelection |=  RCC_PERIPHCLK_LPUART2;
 488:Drivers/STM32G0xx_HAL_Driver/Src/stm32g0xx_hal_rcc_ex.c **** #endif /* RCC_CCIPR_LPUART2SEL */
 489:Drivers/STM32G0xx_HAL_Driver/Src/stm32g0xx_hal_rcc_ex.c **** #if defined(RCC_CCIPR_CECSEL)
 490:Drivers/STM32G0xx_HAL_Driver/Src/stm32g0xx_hal_rcc_ex.c ****   PeriphClkInit->PeriphClockSelection |=  RCC_PERIPHCLK_CEC;
 491:Drivers/STM32G0xx_HAL_Driver/Src/stm32g0xx_hal_rcc_ex.c **** #endif /* RCC_CCIPR_CECSEL */
 492:Drivers/STM32G0xx_HAL_Driver/Src/stm32g0xx_hal_rcc_ex.c **** #if defined(RCC_CCIPR_TIM1SEL)
 493:Drivers/STM32G0xx_HAL_Driver/Src/stm32g0xx_hal_rcc_ex.c ****   PeriphClkInit->PeriphClockSelection |=  RCC_PERIPHCLK_TIM1;
 486              		.loc 1 493 3 is_stmt 1 view .LVU129
 487              		.loc 1 493 39 is_stmt 0 view .LVU130
 488 000c 1A4B     		ldr	r3, .L32+12
 489 000e 0360     		str	r3, [r0]
 494:Drivers/STM32G0xx_HAL_Driver/Src/stm32g0xx_hal_rcc_ex.c **** #endif /* RCC_CCIPR_TIM1SEL */
 495:Drivers/STM32G0xx_HAL_Driver/Src/stm32g0xx_hal_rcc_ex.c **** #if defined(RCC_CCIPR_TIM15SEL)
 496:Drivers/STM32G0xx_HAL_Driver/Src/stm32g0xx_hal_rcc_ex.c ****   PeriphClkInit->PeriphClockSelection |=  RCC_PERIPHCLK_TIM15;
 497:Drivers/STM32G0xx_HAL_Driver/Src/stm32g0xx_hal_rcc_ex.c **** #endif /* RCC_CCIPR_TIM15SEL */
 498:Drivers/STM32G0xx_HAL_Driver/Src/stm32g0xx_hal_rcc_ex.c **** #if defined(RCC_CCIPR_USART2SEL)
 499:Drivers/STM32G0xx_HAL_Driver/Src/stm32g0xx_hal_rcc_ex.c ****   PeriphClkInit->PeriphClockSelection |=  RCC_PERIPHCLK_USART2;
 500:Drivers/STM32G0xx_HAL_Driver/Src/stm32g0xx_hal_rcc_ex.c **** #endif /* RCC_CCIPR_USART2SEL */
 501:Drivers/STM32G0xx_HAL_Driver/Src/stm32g0xx_hal_rcc_ex.c **** #if defined(RCC_CCIPR_USART3SEL)
 502:Drivers/STM32G0xx_HAL_Driver/Src/stm32g0xx_hal_rcc_ex.c ****   PeriphClkInit->PeriphClockSelection |=  RCC_PERIPHCLK_USART3;
 503:Drivers/STM32G0xx_HAL_Driver/Src/stm32g0xx_hal_rcc_ex.c **** #endif /* RCC_CCIPR_USART3SEL */
 504:Drivers/STM32G0xx_HAL_Driver/Src/stm32g0xx_hal_rcc_ex.c **** #if defined(RCC_CCIPR_I2C2SEL)
 505:Drivers/STM32G0xx_HAL_Driver/Src/stm32g0xx_hal_rcc_ex.c ****   PeriphClkInit->PeriphClockSelection |=  RCC_PERIPHCLK_I2C2;
 506:Drivers/STM32G0xx_HAL_Driver/Src/stm32g0xx_hal_rcc_ex.c **** #endif /* RCC_CCIPR_I2C2SEL */
 507:Drivers/STM32G0xx_HAL_Driver/Src/stm32g0xx_hal_rcc_ex.c **** #if defined(RCC_CCIPR2_I2S2SEL)
 508:Drivers/STM32G0xx_HAL_Driver/Src/stm32g0xx_hal_rcc_ex.c ****   PeriphClkInit->PeriphClockSelection |=  RCC_PERIPHCLK_I2S2;
 509:Drivers/STM32G0xx_HAL_Driver/Src/stm32g0xx_hal_rcc_ex.c **** #endif /* RCC_CCIPR2_I2S2SEL */
 510:Drivers/STM32G0xx_HAL_Driver/Src/stm32g0xx_hal_rcc_ex.c **** #if defined(RCC_CCIPR2_USBSEL)
 511:Drivers/STM32G0xx_HAL_Driver/Src/stm32g0xx_hal_rcc_ex.c ****   PeriphClkInit->PeriphClockSelection |=  RCC_PERIPHCLK_USB;
 512:Drivers/STM32G0xx_HAL_Driver/Src/stm32g0xx_hal_rcc_ex.c **** #endif /* RCC_CCIPR2_USBSEL */
 513:Drivers/STM32G0xx_HAL_Driver/Src/stm32g0xx_hal_rcc_ex.c **** #if defined(RCC_CCIPR2_FDCANSEL)
 514:Drivers/STM32G0xx_HAL_Driver/Src/stm32g0xx_hal_rcc_ex.c ****   PeriphClkInit->PeriphClockSelection |=  RCC_PERIPHCLK_FDCAN;
 515:Drivers/STM32G0xx_HAL_Driver/Src/stm32g0xx_hal_rcc_ex.c **** #endif /* RCC_CCIPR_FDCANSEL */
 516:Drivers/STM32G0xx_HAL_Driver/Src/stm32g0xx_hal_rcc_ex.c ****   /* Get the USART1 clock source ---------------------------------------------*/
 517:Drivers/STM32G0xx_HAL_Driver/Src/stm32g0xx_hal_rcc_ex.c ****   PeriphClkInit->Usart1ClockSelection  = __HAL_RCC_GET_USART1_SOURCE();
 490              		.loc 1 517 3 is_stmt 1 view .LVU131
 491              		.loc 1 517 42 is_stmt 0 view .LVU132
 492 0010 1A4B     		ldr	r3, .L32+16
ARM GAS  C:\Users\Xusniyor\AppData\Local\Temp\ccusJTJw.s 			page 19


 493 0012 596D     		ldr	r1, [r3, #84]
 494 0014 0322     		movs	r2, #3
 495 0016 0A40     		ands	r2, r1
 496              		.loc 1 517 40 view .LVU133
 497 0018 4260     		str	r2, [r0, #4]
 518:Drivers/STM32G0xx_HAL_Driver/Src/stm32g0xx_hal_rcc_ex.c **** #if defined(RCC_CCIPR_USART2SEL)
 519:Drivers/STM32G0xx_HAL_Driver/Src/stm32g0xx_hal_rcc_ex.c ****   /* Get the USART2 clock source ---------------------------------------------*/
 520:Drivers/STM32G0xx_HAL_Driver/Src/stm32g0xx_hal_rcc_ex.c ****   PeriphClkInit->Usart2ClockSelection  = __HAL_RCC_GET_USART2_SOURCE();
 521:Drivers/STM32G0xx_HAL_Driver/Src/stm32g0xx_hal_rcc_ex.c **** #endif /* RCC_CCIPR_USART2SEL */
 522:Drivers/STM32G0xx_HAL_Driver/Src/stm32g0xx_hal_rcc_ex.c **** #if defined(RCC_CCIPR_USART3SEL)
 523:Drivers/STM32G0xx_HAL_Driver/Src/stm32g0xx_hal_rcc_ex.c ****   /* Get the USART3 clock source ---------------------------------------------*/
 524:Drivers/STM32G0xx_HAL_Driver/Src/stm32g0xx_hal_rcc_ex.c ****   PeriphClkInit->Usart3ClockSelection  = __HAL_RCC_GET_USART3_SOURCE();
 525:Drivers/STM32G0xx_HAL_Driver/Src/stm32g0xx_hal_rcc_ex.c **** #endif /* RCC_CCIPR_USART3SEL */
 526:Drivers/STM32G0xx_HAL_Driver/Src/stm32g0xx_hal_rcc_ex.c **** #if defined(RCC_CCIPR_LPUART1SEL)
 527:Drivers/STM32G0xx_HAL_Driver/Src/stm32g0xx_hal_rcc_ex.c ****   /* Get the LPUART1 clock source --------------------------------------------*/
 528:Drivers/STM32G0xx_HAL_Driver/Src/stm32g0xx_hal_rcc_ex.c ****   PeriphClkInit->Lpuart1ClockSelection = __HAL_RCC_GET_LPUART1_SOURCE();
 498              		.loc 1 528 3 is_stmt 1 view .LVU134
 499              		.loc 1 528 42 is_stmt 0 view .LVU135
 500 001a 5A6D     		ldr	r2, [r3, #84]
 501 001c C021     		movs	r1, #192
 502 001e 0901     		lsls	r1, r1, #4
 503 0020 0A40     		ands	r2, r1
 504              		.loc 1 528 40 view .LVU136
 505 0022 8260     		str	r2, [r0, #8]
 529:Drivers/STM32G0xx_HAL_Driver/Src/stm32g0xx_hal_rcc_ex.c **** #endif /* RCC_CCIPR_LPUART1SEL */
 530:Drivers/STM32G0xx_HAL_Driver/Src/stm32g0xx_hal_rcc_ex.c **** #if defined(RCC_CCIPR_LPUART2SEL)
 531:Drivers/STM32G0xx_HAL_Driver/Src/stm32g0xx_hal_rcc_ex.c ****   /* Get the LPUART2 clock source --------------------------------------------*/
 532:Drivers/STM32G0xx_HAL_Driver/Src/stm32g0xx_hal_rcc_ex.c ****   PeriphClkInit->Lpuart2ClockSelection = __HAL_RCC_GET_LPUART2_SOURCE();
 533:Drivers/STM32G0xx_HAL_Driver/Src/stm32g0xx_hal_rcc_ex.c **** #endif /* RCC_CCIPR_LPUART2SEL */
 534:Drivers/STM32G0xx_HAL_Driver/Src/stm32g0xx_hal_rcc_ex.c ****   /* Get the I2C1 clock source -----------------------------------------------*/
 535:Drivers/STM32G0xx_HAL_Driver/Src/stm32g0xx_hal_rcc_ex.c ****   PeriphClkInit->I2c1ClockSelection    = __HAL_RCC_GET_I2C1_SOURCE();
 506              		.loc 1 535 3 is_stmt 1 view .LVU137
 507              		.loc 1 535 42 is_stmt 0 view .LVU138
 508 0024 5A6D     		ldr	r2, [r3, #84]
 509 0026 C021     		movs	r1, #192
 510 0028 8901     		lsls	r1, r1, #6
 511 002a 0A40     		ands	r2, r1
 512              		.loc 1 535 40 view .LVU139
 513 002c C260     		str	r2, [r0, #12]
 536:Drivers/STM32G0xx_HAL_Driver/Src/stm32g0xx_hal_rcc_ex.c **** #if defined(RCC_CCIPR_I2C2SEL)
 537:Drivers/STM32G0xx_HAL_Driver/Src/stm32g0xx_hal_rcc_ex.c ****   /* Get the I2C2 clock source -----------------------------------------------*/
 538:Drivers/STM32G0xx_HAL_Driver/Src/stm32g0xx_hal_rcc_ex.c ****   PeriphClkInit->I2c2ClockSelection    = __HAL_RCC_GET_I2C2_SOURCE();
 539:Drivers/STM32G0xx_HAL_Driver/Src/stm32g0xx_hal_rcc_ex.c **** #endif /* RCC_CCIPR_I2C2SEL */
 540:Drivers/STM32G0xx_HAL_Driver/Src/stm32g0xx_hal_rcc_ex.c **** #if defined(RCC_CCIPR_LPTIM1SEL)
 541:Drivers/STM32G0xx_HAL_Driver/Src/stm32g0xx_hal_rcc_ex.c ****   /* Get the LPTIM1 clock source ---------------------------------------------*/
 542:Drivers/STM32G0xx_HAL_Driver/Src/stm32g0xx_hal_rcc_ex.c ****   PeriphClkInit->Lptim1ClockSelection  = __HAL_RCC_GET_LPTIM1_SOURCE();
 514              		.loc 1 542 3 is_stmt 1 view .LVU140
 515              		.loc 1 542 42 is_stmt 0 view .LVU141
 516 002e 5A6D     		ldr	r2, [r3, #84]
 517 0030 C021     		movs	r1, #192
 518 0032 0903     		lsls	r1, r1, #12
 519 0034 0A40     		ands	r2, r1
 520              		.loc 1 542 40 view .LVU142
 521 0036 4261     		str	r2, [r0, #20]
 543:Drivers/STM32G0xx_HAL_Driver/Src/stm32g0xx_hal_rcc_ex.c **** #endif /* RCC_CCIPR_LPTIM1SEL */
 544:Drivers/STM32G0xx_HAL_Driver/Src/stm32g0xx_hal_rcc_ex.c **** #if defined(RCC_CCIPR_LPTIM2SEL)
 545:Drivers/STM32G0xx_HAL_Driver/Src/stm32g0xx_hal_rcc_ex.c ****   /* Get the LPTIM2 clock source ---------------------------------------------*/
ARM GAS  C:\Users\Xusniyor\AppData\Local\Temp\ccusJTJw.s 			page 20


 546:Drivers/STM32G0xx_HAL_Driver/Src/stm32g0xx_hal_rcc_ex.c ****   PeriphClkInit->Lptim2ClockSelection  = __HAL_RCC_GET_LPTIM2_SOURCE();
 522              		.loc 1 546 3 is_stmt 1 view .LVU143
 523              		.loc 1 546 42 is_stmt 0 view .LVU144
 524 0038 5A6D     		ldr	r2, [r3, #84]
 525 003a C021     		movs	r1, #192
 526 003c 8903     		lsls	r1, r1, #14
 527 003e 0A40     		ands	r2, r1
 528              		.loc 1 546 40 view .LVU145
 529 0040 8261     		str	r2, [r0, #24]
 547:Drivers/STM32G0xx_HAL_Driver/Src/stm32g0xx_hal_rcc_ex.c **** #endif /* RCC_CCIPR_LPTIM2SEL */
 548:Drivers/STM32G0xx_HAL_Driver/Src/stm32g0xx_hal_rcc_ex.c **** #if defined(RCC_CCIPR_TIM1SEL)
 549:Drivers/STM32G0xx_HAL_Driver/Src/stm32g0xx_hal_rcc_ex.c ****   /* Get the TIM1 clock source ---------------------------------------------*/
 550:Drivers/STM32G0xx_HAL_Driver/Src/stm32g0xx_hal_rcc_ex.c ****   PeriphClkInit->Tim1ClockSelection  = __HAL_RCC_GET_TIM1_SOURCE();
 530              		.loc 1 550 3 is_stmt 1 view .LVU146
 531              		.loc 1 550 40 is_stmt 0 view .LVU147
 532 0042 5A6D     		ldr	r2, [r3, #84]
 533 0044 8021     		movs	r1, #128
 534 0046 C903     		lsls	r1, r1, #15
 535 0048 0A40     		ands	r2, r1
 536              		.loc 1 550 38 view .LVU148
 537 004a 0262     		str	r2, [r0, #32]
 551:Drivers/STM32G0xx_HAL_Driver/Src/stm32g0xx_hal_rcc_ex.c **** #endif /* RCC_CCIPR_TIM1SEL */
 552:Drivers/STM32G0xx_HAL_Driver/Src/stm32g0xx_hal_rcc_ex.c **** #if defined(RCC_CCIPR_TIM15SEL)
 553:Drivers/STM32G0xx_HAL_Driver/Src/stm32g0xx_hal_rcc_ex.c ****   /* Get the TIM15 clock source ---------------------------------------------*/
 554:Drivers/STM32G0xx_HAL_Driver/Src/stm32g0xx_hal_rcc_ex.c ****   PeriphClkInit->Tim15ClockSelection  = __HAL_RCC_GET_TIM15_SOURCE();
 555:Drivers/STM32G0xx_HAL_Driver/Src/stm32g0xx_hal_rcc_ex.c **** #endif /* RCC_CCIPR_TIM15SEL */
 556:Drivers/STM32G0xx_HAL_Driver/Src/stm32g0xx_hal_rcc_ex.c ****   /* Get the RTC clock source ------------------------------------------------*/
 557:Drivers/STM32G0xx_HAL_Driver/Src/stm32g0xx_hal_rcc_ex.c ****   PeriphClkInit->RTCClockSelection     = __HAL_RCC_GET_RTC_SOURCE();
 538              		.loc 1 557 3 is_stmt 1 view .LVU149
 539              		.loc 1 557 42 is_stmt 0 view .LVU150
 540 004c DA6D     		ldr	r2, [r3, #92]
 541 004e C021     		movs	r1, #192
 542 0050 8900     		lsls	r1, r1, #2
 543 0052 0A40     		ands	r2, r1
 544              		.loc 1 557 40 view .LVU151
 545 0054 4262     		str	r2, [r0, #36]
 558:Drivers/STM32G0xx_HAL_Driver/Src/stm32g0xx_hal_rcc_ex.c **** #if defined(RCC_CCIPR_RNGSEL)
 559:Drivers/STM32G0xx_HAL_Driver/Src/stm32g0xx_hal_rcc_ex.c ****   /* Get the RNG clock source ------------------------------------------------*/
 560:Drivers/STM32G0xx_HAL_Driver/Src/stm32g0xx_hal_rcc_ex.c ****   PeriphClkInit->RngClockSelection     = __HAL_RCC_GET_RNG_SOURCE();
 561:Drivers/STM32G0xx_HAL_Driver/Src/stm32g0xx_hal_rcc_ex.c **** #endif  /* RCC_CCIPR_RNGSEL */
 562:Drivers/STM32G0xx_HAL_Driver/Src/stm32g0xx_hal_rcc_ex.c ****   /* Get the ADC clock source -----------------------------------------------*/
 563:Drivers/STM32G0xx_HAL_Driver/Src/stm32g0xx_hal_rcc_ex.c ****   PeriphClkInit->AdcClockSelection     = __HAL_RCC_GET_ADC_SOURCE();
 546              		.loc 1 563 3 is_stmt 1 view .LVU152
 547              		.loc 1 563 42 is_stmt 0 view .LVU153
 548 0056 5A6D     		ldr	r2, [r3, #84]
 549 0058 920F     		lsrs	r2, r2, #30
 550 005a 9207     		lsls	r2, r2, #30
 551              		.loc 1 563 40 view .LVU154
 552 005c C261     		str	r2, [r0, #28]
 564:Drivers/STM32G0xx_HAL_Driver/Src/stm32g0xx_hal_rcc_ex.c **** #if defined(RCC_CCIPR_CECSEL)
 565:Drivers/STM32G0xx_HAL_Driver/Src/stm32g0xx_hal_rcc_ex.c ****   /* Get the CEC clock source -----------------------------------------------*/
 566:Drivers/STM32G0xx_HAL_Driver/Src/stm32g0xx_hal_rcc_ex.c ****   PeriphClkInit->CecClockSelection     = __HAL_RCC_GET_CEC_SOURCE();
 567:Drivers/STM32G0xx_HAL_Driver/Src/stm32g0xx_hal_rcc_ex.c **** #endif  /* RCC_CCIPR_CECSEL */
 568:Drivers/STM32G0xx_HAL_Driver/Src/stm32g0xx_hal_rcc_ex.c **** #if defined(RCC_CCIPR2_USBSEL)
 569:Drivers/STM32G0xx_HAL_Driver/Src/stm32g0xx_hal_rcc_ex.c ****   /* Get the USB clock source -----------------------------------------------*/
 570:Drivers/STM32G0xx_HAL_Driver/Src/stm32g0xx_hal_rcc_ex.c ****   PeriphClkInit->UsbClockSelection     = __HAL_RCC_GET_USB_SOURCE();
 571:Drivers/STM32G0xx_HAL_Driver/Src/stm32g0xx_hal_rcc_ex.c **** #endif  /* RCC_CCIPR2_USBSEL */
ARM GAS  C:\Users\Xusniyor\AppData\Local\Temp\ccusJTJw.s 			page 21


 572:Drivers/STM32G0xx_HAL_Driver/Src/stm32g0xx_hal_rcc_ex.c **** #if defined(RCC_CCIPR2_FDCANSEL)
 573:Drivers/STM32G0xx_HAL_Driver/Src/stm32g0xx_hal_rcc_ex.c ****   /* Get the FDCAN clock source -----------------------------------------------*/
 574:Drivers/STM32G0xx_HAL_Driver/Src/stm32g0xx_hal_rcc_ex.c ****   PeriphClkInit->FdcanClockSelection     = __HAL_RCC_GET_FDCAN_SOURCE();
 575:Drivers/STM32G0xx_HAL_Driver/Src/stm32g0xx_hal_rcc_ex.c **** #endif  /* RCC_CCIPR2_FDCANSEL */
 576:Drivers/STM32G0xx_HAL_Driver/Src/stm32g0xx_hal_rcc_ex.c ****   /* Get the I2S1 clock source -----------------------------------------------*/
 577:Drivers/STM32G0xx_HAL_Driver/Src/stm32g0xx_hal_rcc_ex.c ****   PeriphClkInit->I2s1ClockSelection    = __HAL_RCC_GET_I2S1_SOURCE();
 553              		.loc 1 577 3 is_stmt 1 view .LVU155
 554              		.loc 1 577 42 is_stmt 0 view .LVU156
 555 005e 5B6D     		ldr	r3, [r3, #84]
 556 0060 C022     		movs	r2, #192
 557 0062 1202     		lsls	r2, r2, #8
 558 0064 1340     		ands	r3, r2
 559              		.loc 1 577 40 view .LVU157
 560 0066 0361     		str	r3, [r0, #16]
 578:Drivers/STM32G0xx_HAL_Driver/Src/stm32g0xx_hal_rcc_ex.c **** #if defined(RCC_CCIPR2_I2S2SEL)
 579:Drivers/STM32G0xx_HAL_Driver/Src/stm32g0xx_hal_rcc_ex.c ****   /* Get the I2S2 clock source -----------------------------------------------*/
 580:Drivers/STM32G0xx_HAL_Driver/Src/stm32g0xx_hal_rcc_ex.c ****   PeriphClkInit->I2s2ClockSelection    = __HAL_RCC_GET_I2S2_SOURCE();
 581:Drivers/STM32G0xx_HAL_Driver/Src/stm32g0xx_hal_rcc_ex.c **** #endif /* RCC_CCIPR2_I2S2SEL */
 582:Drivers/STM32G0xx_HAL_Driver/Src/stm32g0xx_hal_rcc_ex.c **** }
 561              		.loc 1 582 1 view .LVU158
 562              		@ sp needed
 563 0068 7047     		bx	lr
 564              	.L33:
 565 006a C046     		.align	2
 566              	.L32:
 567 006c 21480200 		.word	149537
 568 0070 214E0200 		.word	151073
 569 0074 314E0200 		.word	151089
 570 0078 314E2200 		.word	2248241
 571 007c 00100240 		.word	1073876992
 572              		.cfi_endproc
 573              	.LFE298:
 575              		.global	__aeabi_uidiv
 576              		.section	.text.HAL_RCCEx_GetPeriphCLKFreq,"ax",%progbits
 577              		.align	1
 578              		.global	HAL_RCCEx_GetPeriphCLKFreq
 579              		.syntax unified
 580              		.code	16
 581              		.thumb_func
 583              	HAL_RCCEx_GetPeriphCLKFreq:
 584              	.LVL30:
 585              	.LFB299:
 583:Drivers/STM32G0xx_HAL_Driver/Src/stm32g0xx_hal_rcc_ex.c **** 
 584:Drivers/STM32G0xx_HAL_Driver/Src/stm32g0xx_hal_rcc_ex.c **** /**
 585:Drivers/STM32G0xx_HAL_Driver/Src/stm32g0xx_hal_rcc_ex.c ****   * @brief  Return the peripheral clock frequency for peripherals with clock source from PLL
 586:Drivers/STM32G0xx_HAL_Driver/Src/stm32g0xx_hal_rcc_ex.c ****   * @note   Return 0 if peripheral clock identifier not managed by this API
 587:Drivers/STM32G0xx_HAL_Driver/Src/stm32g0xx_hal_rcc_ex.c ****   * @param  PeriphClk  Peripheral clock identifier
 588:Drivers/STM32G0xx_HAL_Driver/Src/stm32g0xx_hal_rcc_ex.c ****   *         This parameter can be one of the following values:
 589:Drivers/STM32G0xx_HAL_Driver/Src/stm32g0xx_hal_rcc_ex.c ****   *            @arg @ref RCC_PERIPHCLK_RTC     RTC peripheral clock
 590:Drivers/STM32G0xx_HAL_Driver/Src/stm32g0xx_hal_rcc_ex.c ****   *            @arg @ref RCC_PERIPHCLK_ADC     ADC peripheral clock
 591:Drivers/STM32G0xx_HAL_Driver/Src/stm32g0xx_hal_rcc_ex.c ****   *            @arg @ref RCC_PERIPHCLK_I2C1    I2C1 peripheral clock
 592:Drivers/STM32G0xx_HAL_Driver/Src/stm32g0xx_hal_rcc_ex.c ****   *            @arg @ref RCC_PERIPHCLK_I2C2    I2C2 peripheral clock (1)
 593:Drivers/STM32G0xx_HAL_Driver/Src/stm32g0xx_hal_rcc_ex.c ****   *            @arg @ref RCC_PERIPHCLK_I2S1    I2S1 peripheral clock
 594:Drivers/STM32G0xx_HAL_Driver/Src/stm32g0xx_hal_rcc_ex.c ****   *            @arg @ref RCC_PERIPHCLK_I2S2    I2S2 peripheral clock (1)
 595:Drivers/STM32G0xx_HAL_Driver/Src/stm32g0xx_hal_rcc_ex.c ****   *            @arg @ref RCC_PERIPHCLK_USART1  USART1 peripheral clock
 596:Drivers/STM32G0xx_HAL_Driver/Src/stm32g0xx_hal_rcc_ex.c ****   *            @arg @ref RCC_PERIPHCLK_USART2  USART2 peripheral clock (1)(2)
 597:Drivers/STM32G0xx_HAL_Driver/Src/stm32g0xx_hal_rcc_ex.c ****   *            @arg @ref RCC_PERIPHCLK_USART3  USART3 peripheral clock (1)
ARM GAS  C:\Users\Xusniyor\AppData\Local\Temp\ccusJTJw.s 			page 22


 598:Drivers/STM32G0xx_HAL_Driver/Src/stm32g0xx_hal_rcc_ex.c ****   *            @arg @ref RCC_PERIPHCLK_RNG     RNG peripheral clock    (1)
 599:Drivers/STM32G0xx_HAL_Driver/Src/stm32g0xx_hal_rcc_ex.c ****   *            @arg @ref RCC_PERIPHCLK_TIM15   TIM15 peripheral clock  (1)(2)
 600:Drivers/STM32G0xx_HAL_Driver/Src/stm32g0xx_hal_rcc_ex.c ****   *            @arg @ref RCC_PERIPHCLK_TIM1    TIM1 peripheral clock   (1)(2)
 601:Drivers/STM32G0xx_HAL_Driver/Src/stm32g0xx_hal_rcc_ex.c ****   *            @arg @ref RCC_PERIPHCLK_LPTIM1  LPTIM1 peripheral clock (1)
 602:Drivers/STM32G0xx_HAL_Driver/Src/stm32g0xx_hal_rcc_ex.c ****   *            @arg @ref RCC_PERIPHCLK_LPTIM2  LPTIM2 peripheral clock (1)
 603:Drivers/STM32G0xx_HAL_Driver/Src/stm32g0xx_hal_rcc_ex.c ****   *            @arg @ref RCC_PERIPHCLK_LPUART1 LPUART1 peripheral clock(1)
 604:Drivers/STM32G0xx_HAL_Driver/Src/stm32g0xx_hal_rcc_ex.c ****   *            @arg @ref RCC_PERIPHCLK_LPUART2 LPUART2 peripheral clock(1)
 605:Drivers/STM32G0xx_HAL_Driver/Src/stm32g0xx_hal_rcc_ex.c ****   *            @arg @ref RCC_PERIPHCLK_CEC     CEC peripheral clock    (1)
 606:Drivers/STM32G0xx_HAL_Driver/Src/stm32g0xx_hal_rcc_ex.c ****   *            @arg @ref RCC_PERIPHCLK_FDCAN    FDCAN peripheral clock (1)
 607:Drivers/STM32G0xx_HAL_Driver/Src/stm32g0xx_hal_rcc_ex.c ****   *            @arg @ref RCC_PERIPHCLK_USB      USB peripheral clock   (1)
 608:Drivers/STM32G0xx_HAL_Driver/Src/stm32g0xx_hal_rcc_ex.c ****   * @note   (1) Peripheral not available on all devices
 609:Drivers/STM32G0xx_HAL_Driver/Src/stm32g0xx_hal_rcc_ex.c ****   * @note   (2) Peripheral Clock configuration not available on all devices
 610:Drivers/STM32G0xx_HAL_Driver/Src/stm32g0xx_hal_rcc_ex.c ****   * @retval Frequency in Hz
 611:Drivers/STM32G0xx_HAL_Driver/Src/stm32g0xx_hal_rcc_ex.c ****   */
 612:Drivers/STM32G0xx_HAL_Driver/Src/stm32g0xx_hal_rcc_ex.c **** uint32_t HAL_RCCEx_GetPeriphCLKFreq(uint32_t PeriphClk)
 613:Drivers/STM32G0xx_HAL_Driver/Src/stm32g0xx_hal_rcc_ex.c **** {
 586              		.loc 1 613 1 is_stmt 1 view -0
 587              		.cfi_startproc
 588              		@ args = 0, pretend = 0, frame = 0
 589              		@ frame_needed = 0, uses_anonymous_args = 0
 590              		.loc 1 613 1 is_stmt 0 view .LVU160
 591 0000 10B5     		push	{r4, lr}
 592              	.LCFI2:
 593              		.cfi_def_cfa_offset 8
 594              		.cfi_offset 4, -8
 595              		.cfi_offset 14, -4
 596 0002 0400     		movs	r4, r0
 614:Drivers/STM32G0xx_HAL_Driver/Src/stm32g0xx_hal_rcc_ex.c ****   uint32_t frequency = 0U;
 597              		.loc 1 614 3 is_stmt 1 view .LVU161
 598              	.LVL31:
 615:Drivers/STM32G0xx_HAL_Driver/Src/stm32g0xx_hal_rcc_ex.c ****   uint32_t srcclk;
 599              		.loc 1 615 3 view .LVU162
 616:Drivers/STM32G0xx_HAL_Driver/Src/stm32g0xx_hal_rcc_ex.c ****   uint32_t pllvco;
 600              		.loc 1 616 3 view .LVU163
 617:Drivers/STM32G0xx_HAL_Driver/Src/stm32g0xx_hal_rcc_ex.c ****   uint32_t plln;
 601              		.loc 1 617 3 view .LVU164
 618:Drivers/STM32G0xx_HAL_Driver/Src/stm32g0xx_hal_rcc_ex.c **** #if defined(RCC_CCIPR_RNGSEL)
 619:Drivers/STM32G0xx_HAL_Driver/Src/stm32g0xx_hal_rcc_ex.c ****   uint32_t rngclk;
 620:Drivers/STM32G0xx_HAL_Driver/Src/stm32g0xx_hal_rcc_ex.c ****   uint32_t rngdiv;
 621:Drivers/STM32G0xx_HAL_Driver/Src/stm32g0xx_hal_rcc_ex.c **** #endif /* RCC_CCIPR_RNGSEL */
 622:Drivers/STM32G0xx_HAL_Driver/Src/stm32g0xx_hal_rcc_ex.c ****   /* Check the parameters */
 623:Drivers/STM32G0xx_HAL_Driver/Src/stm32g0xx_hal_rcc_ex.c ****   assert_param(IS_RCC_PERIPHCLOCK(PeriphClk));
 602              		.loc 1 623 3 view .LVU165
 624:Drivers/STM32G0xx_HAL_Driver/Src/stm32g0xx_hal_rcc_ex.c **** 
 625:Drivers/STM32G0xx_HAL_Driver/Src/stm32g0xx_hal_rcc_ex.c ****   if (PeriphClk == RCC_PERIPHCLK_RTC)
 603              		.loc 1 625 3 view .LVU166
 604              		.loc 1 625 6 is_stmt 0 view .LVU167
 605 0004 8023     		movs	r3, #128
 606 0006 9B02     		lsls	r3, r3, #10
 607 0008 9842     		cmp	r0, r3
 608 000a 4DD0     		beq	.L89
 626:Drivers/STM32G0xx_HAL_Driver/Src/stm32g0xx_hal_rcc_ex.c ****   {
 627:Drivers/STM32G0xx_HAL_Driver/Src/stm32g0xx_hal_rcc_ex.c ****     /* Get the current RTC source */
 628:Drivers/STM32G0xx_HAL_Driver/Src/stm32g0xx_hal_rcc_ex.c ****     srcclk = __HAL_RCC_GET_RTC_SOURCE();
 629:Drivers/STM32G0xx_HAL_Driver/Src/stm32g0xx_hal_rcc_ex.c **** 
 630:Drivers/STM32G0xx_HAL_Driver/Src/stm32g0xx_hal_rcc_ex.c ****     /* Check if LSE is ready and if RTC clock selection is LSE */
 631:Drivers/STM32G0xx_HAL_Driver/Src/stm32g0xx_hal_rcc_ex.c ****     if ((HAL_IS_BIT_SET(RCC->BDCR, RCC_BDCR_LSERDY)) && (srcclk == RCC_RTCCLKSOURCE_LSE))
ARM GAS  C:\Users\Xusniyor\AppData\Local\Temp\ccusJTJw.s 			page 23


 632:Drivers/STM32G0xx_HAL_Driver/Src/stm32g0xx_hal_rcc_ex.c ****     {
 633:Drivers/STM32G0xx_HAL_Driver/Src/stm32g0xx_hal_rcc_ex.c ****       frequency = LSE_VALUE;
 634:Drivers/STM32G0xx_HAL_Driver/Src/stm32g0xx_hal_rcc_ex.c ****     }
 635:Drivers/STM32G0xx_HAL_Driver/Src/stm32g0xx_hal_rcc_ex.c ****     /* Check if LSI is ready and if RTC clock selection is LSI */
 636:Drivers/STM32G0xx_HAL_Driver/Src/stm32g0xx_hal_rcc_ex.c ****     else if ((HAL_IS_BIT_SET(RCC->CSR, RCC_CSR_LSIRDY)) && (srcclk == RCC_RTCCLKSOURCE_LSI))
 637:Drivers/STM32G0xx_HAL_Driver/Src/stm32g0xx_hal_rcc_ex.c ****     {
 638:Drivers/STM32G0xx_HAL_Driver/Src/stm32g0xx_hal_rcc_ex.c ****       frequency = LSI_VALUE;
 639:Drivers/STM32G0xx_HAL_Driver/Src/stm32g0xx_hal_rcc_ex.c ****     }
 640:Drivers/STM32G0xx_HAL_Driver/Src/stm32g0xx_hal_rcc_ex.c ****     /* Check if HSE is ready  and if RTC clock selection is HSI_DIV32*/
 641:Drivers/STM32G0xx_HAL_Driver/Src/stm32g0xx_hal_rcc_ex.c ****     else if ((HAL_IS_BIT_SET(RCC->CR, RCC_CR_HSERDY)) && (srcclk == RCC_RTCCLKSOURCE_HSE_DIV32))
 642:Drivers/STM32G0xx_HAL_Driver/Src/stm32g0xx_hal_rcc_ex.c ****     {
 643:Drivers/STM32G0xx_HAL_Driver/Src/stm32g0xx_hal_rcc_ex.c ****       frequency = HSE_VALUE / 32U;
 644:Drivers/STM32G0xx_HAL_Driver/Src/stm32g0xx_hal_rcc_ex.c ****     }
 645:Drivers/STM32G0xx_HAL_Driver/Src/stm32g0xx_hal_rcc_ex.c ****     /* Clock not enabled for RTC*/
 646:Drivers/STM32G0xx_HAL_Driver/Src/stm32g0xx_hal_rcc_ex.c ****     else
 647:Drivers/STM32G0xx_HAL_Driver/Src/stm32g0xx_hal_rcc_ex.c ****     {
 648:Drivers/STM32G0xx_HAL_Driver/Src/stm32g0xx_hal_rcc_ex.c ****       /* Nothing to do as frequency already initialized to 0U */
 649:Drivers/STM32G0xx_HAL_Driver/Src/stm32g0xx_hal_rcc_ex.c ****     }
 650:Drivers/STM32G0xx_HAL_Driver/Src/stm32g0xx_hal_rcc_ex.c ****   }
 651:Drivers/STM32G0xx_HAL_Driver/Src/stm32g0xx_hal_rcc_ex.c ****   else
 652:Drivers/STM32G0xx_HAL_Driver/Src/stm32g0xx_hal_rcc_ex.c ****   {
 653:Drivers/STM32G0xx_HAL_Driver/Src/stm32g0xx_hal_rcc_ex.c ****     /* Other external peripheral clock source than RTC */
 654:Drivers/STM32G0xx_HAL_Driver/Src/stm32g0xx_hal_rcc_ex.c **** 
 655:Drivers/STM32G0xx_HAL_Driver/Src/stm32g0xx_hal_rcc_ex.c ****     /* Compute PLL clock input */
 656:Drivers/STM32G0xx_HAL_Driver/Src/stm32g0xx_hal_rcc_ex.c ****     if (__HAL_RCC_GET_PLL_OSCSOURCE() == RCC_PLLSOURCE_HSI)  /* HSI ? */
 609              		.loc 1 656 5 is_stmt 1 view .LVU168
 610              		.loc 1 656 9 is_stmt 0 view .LVU169
 611 000c BD4B     		ldr	r3, .L108
 612 000e DA68     		ldr	r2, [r3, #12]
 613 0010 0323     		movs	r3, #3
 614 0012 1340     		ands	r3, r2
 615              		.loc 1 656 8 view .LVU170
 616 0014 022B     		cmp	r3, #2
 617 0016 6ED0     		beq	.L72
 657:Drivers/STM32G0xx_HAL_Driver/Src/stm32g0xx_hal_rcc_ex.c ****     {
 658:Drivers/STM32G0xx_HAL_Driver/Src/stm32g0xx_hal_rcc_ex.c ****       pllvco = HSI_VALUE;
 659:Drivers/STM32G0xx_HAL_Driver/Src/stm32g0xx_hal_rcc_ex.c ****     }
 660:Drivers/STM32G0xx_HAL_Driver/Src/stm32g0xx_hal_rcc_ex.c ****     else if (__HAL_RCC_GET_PLL_OSCSOURCE() == RCC_PLLSOURCE_HSE)  /* HSE ? */
 618              		.loc 1 660 10 is_stmt 1 view .LVU171
 619              		.loc 1 660 14 is_stmt 0 view .LVU172
 620 0018 BA4B     		ldr	r3, .L108
 621 001a DA68     		ldr	r2, [r3, #12]
 622 001c 0323     		movs	r3, #3
 623 001e 1340     		ands	r3, r2
 624              		.loc 1 660 13 view .LVU173
 625 0020 032B     		cmp	r3, #3
 626 0022 66D0     		beq	.L90
 661:Drivers/STM32G0xx_HAL_Driver/Src/stm32g0xx_hal_rcc_ex.c ****     {
 662:Drivers/STM32G0xx_HAL_Driver/Src/stm32g0xx_hal_rcc_ex.c ****       pllvco = HSE_VALUE;
 663:Drivers/STM32G0xx_HAL_Driver/Src/stm32g0xx_hal_rcc_ex.c ****     }
 664:Drivers/STM32G0xx_HAL_Driver/Src/stm32g0xx_hal_rcc_ex.c ****     else /* No source */
 665:Drivers/STM32G0xx_HAL_Driver/Src/stm32g0xx_hal_rcc_ex.c ****     {
 666:Drivers/STM32G0xx_HAL_Driver/Src/stm32g0xx_hal_rcc_ex.c ****       pllvco = 0U;
 627              		.loc 1 666 14 view .LVU174
 628 0024 0020     		movs	r0, #0
 629              	.LVL32:
 630              	.L39:
ARM GAS  C:\Users\Xusniyor\AppData\Local\Temp\ccusJTJw.s 			page 24


 667:Drivers/STM32G0xx_HAL_Driver/Src/stm32g0xx_hal_rcc_ex.c ****     }
 668:Drivers/STM32G0xx_HAL_Driver/Src/stm32g0xx_hal_rcc_ex.c **** 
 669:Drivers/STM32G0xx_HAL_Driver/Src/stm32g0xx_hal_rcc_ex.c ****     /* f(PLL Source) / PLLM */
 670:Drivers/STM32G0xx_HAL_Driver/Src/stm32g0xx_hal_rcc_ex.c ****     pllvco = (pllvco / ((READ_BIT(RCC->PLLCFGR, RCC_PLLCFGR_PLLM) >> RCC_PLLCFGR_PLLM_Pos) + 1U));
 631              		.loc 1 670 5 is_stmt 1 view .LVU175
 632              		.loc 1 670 26 is_stmt 0 view .LVU176
 633 0026 B74B     		ldr	r3, .L108
 634 0028 DB68     		ldr	r3, [r3, #12]
 635              		.loc 1 670 67 view .LVU177
 636 002a 1B09     		lsrs	r3, r3, #4
 637 002c 0721     		movs	r1, #7
 638 002e 1940     		ands	r1, r3
 639              		.loc 1 670 92 view .LVU178
 640 0030 0131     		adds	r1, r1, #1
 641              		.loc 1 670 12 view .LVU179
 642 0032 FFF7FEFF 		bl	__aeabi_uidiv
 643              	.LVL33:
 644              		.loc 1 670 12 view .LVU180
 645 0036 0200     		movs	r2, r0
 646              	.LVL34:
 671:Drivers/STM32G0xx_HAL_Driver/Src/stm32g0xx_hal_rcc_ex.c **** 
 672:Drivers/STM32G0xx_HAL_Driver/Src/stm32g0xx_hal_rcc_ex.c ****     switch (PeriphClk)
 647              		.loc 1 672 5 is_stmt 1 view .LVU181
 648 0038 8023     		movs	r3, #128
 649 003a DB00     		lsls	r3, r3, #3
 650 003c 9C42     		cmp	r4, r3
 651 003e 00D1     		bne	.LCB633
 652 0040 66E1     		b	.L40	@long jump
 653              	.LCB633:
 654 0042 00D9     		bls	.LCB635
 655 0044 87E0     		b	.L41	@long jump
 656              	.LCB635:
 657 0046 202C     		cmp	r4, #32
 658 0048 00D1     		bne	.LCB637
 659 004a 1DE1     		b	.L42	@long jump
 660              	.LCB637:
 661 004c 55D9     		bls	.L91
 662 004e 8023     		movs	r3, #128
 663 0050 9B00     		lsls	r3, r3, #2
 664 0052 9C42     		cmp	r4, r3
 665 0054 7DD1     		bne	.L92
 673:Drivers/STM32G0xx_HAL_Driver/Src/stm32g0xx_hal_rcc_ex.c ****     {
 674:Drivers/STM32G0xx_HAL_Driver/Src/stm32g0xx_hal_rcc_ex.c **** #if defined(RCC_CCIPR_RNGSEL)
 675:Drivers/STM32G0xx_HAL_Driver/Src/stm32g0xx_hal_rcc_ex.c ****       case RCC_PERIPHCLK_RNG:
 676:Drivers/STM32G0xx_HAL_Driver/Src/stm32g0xx_hal_rcc_ex.c **** 
 677:Drivers/STM32G0xx_HAL_Driver/Src/stm32g0xx_hal_rcc_ex.c ****         srcclk = READ_BIT(RCC->CCIPR, RCC_CCIPR_RNGSEL);
 678:Drivers/STM32G0xx_HAL_Driver/Src/stm32g0xx_hal_rcc_ex.c ****         if (srcclk == RCC_RNGCLKSOURCE_HSI_DIV8)  /* HSI_DIV8 ? */
 679:Drivers/STM32G0xx_HAL_Driver/Src/stm32g0xx_hal_rcc_ex.c ****         {
 680:Drivers/STM32G0xx_HAL_Driver/Src/stm32g0xx_hal_rcc_ex.c ****           rngclk = HSI_VALUE / 8U;
 681:Drivers/STM32G0xx_HAL_Driver/Src/stm32g0xx_hal_rcc_ex.c ****         }
 682:Drivers/STM32G0xx_HAL_Driver/Src/stm32g0xx_hal_rcc_ex.c ****         else if (srcclk == RCC_RNGCLKSOURCE_PLL) /* PLL ? */
 683:Drivers/STM32G0xx_HAL_Driver/Src/stm32g0xx_hal_rcc_ex.c ****         {
 684:Drivers/STM32G0xx_HAL_Driver/Src/stm32g0xx_hal_rcc_ex.c ****           /* f(PLLQ) = f(VCO input) * PLLN / PLLQ */
 685:Drivers/STM32G0xx_HAL_Driver/Src/stm32g0xx_hal_rcc_ex.c ****           plln = READ_BIT(RCC->PLLCFGR, RCC_PLLCFGR_PLLN) >> RCC_PLLCFGR_PLLN_Pos;
 686:Drivers/STM32G0xx_HAL_Driver/Src/stm32g0xx_hal_rcc_ex.c ****           rngclk = (pllvco * plln) / ((READ_BIT(RCC->PLLCFGR, RCC_PLLCFGR_PLLQ) >> RCC_PLLCFGR_PLLQ
 687:Drivers/STM32G0xx_HAL_Driver/Src/stm32g0xx_hal_rcc_ex.c ****         }
 688:Drivers/STM32G0xx_HAL_Driver/Src/stm32g0xx_hal_rcc_ex.c ****         else if (srcclk == RCC_RNGCLKSOURCE_SYSCLK) /* SYSCLK ? */
ARM GAS  C:\Users\Xusniyor\AppData\Local\Temp\ccusJTJw.s 			page 25


 689:Drivers/STM32G0xx_HAL_Driver/Src/stm32g0xx_hal_rcc_ex.c ****         {
 690:Drivers/STM32G0xx_HAL_Driver/Src/stm32g0xx_hal_rcc_ex.c ****           rngclk = HAL_RCC_GetSysClockFreq();
 691:Drivers/STM32G0xx_HAL_Driver/Src/stm32g0xx_hal_rcc_ex.c ****         }
 692:Drivers/STM32G0xx_HAL_Driver/Src/stm32g0xx_hal_rcc_ex.c ****         else /* No clock source */
 693:Drivers/STM32G0xx_HAL_Driver/Src/stm32g0xx_hal_rcc_ex.c ****         {
 694:Drivers/STM32G0xx_HAL_Driver/Src/stm32g0xx_hal_rcc_ex.c ****           rngclk = 0U;
 695:Drivers/STM32G0xx_HAL_Driver/Src/stm32g0xx_hal_rcc_ex.c ****         }
 696:Drivers/STM32G0xx_HAL_Driver/Src/stm32g0xx_hal_rcc_ex.c **** 
 697:Drivers/STM32G0xx_HAL_Driver/Src/stm32g0xx_hal_rcc_ex.c ****         rngdiv = (1UL << ((READ_BIT(RCC->CCIPR, RCC_CCIPR_RNGDIV)) >> RCC_CCIPR_RNGDIV_Pos));
 698:Drivers/STM32G0xx_HAL_Driver/Src/stm32g0xx_hal_rcc_ex.c ****         frequency = (rngclk / rngdiv);
 699:Drivers/STM32G0xx_HAL_Driver/Src/stm32g0xx_hal_rcc_ex.c **** 
 700:Drivers/STM32G0xx_HAL_Driver/Src/stm32g0xx_hal_rcc_ex.c ****         break;
 701:Drivers/STM32G0xx_HAL_Driver/Src/stm32g0xx_hal_rcc_ex.c **** #endif  /* RCC_CCIPR_RNGSEL */
 702:Drivers/STM32G0xx_HAL_Driver/Src/stm32g0xx_hal_rcc_ex.c ****       case RCC_PERIPHCLK_USART1:
 703:Drivers/STM32G0xx_HAL_Driver/Src/stm32g0xx_hal_rcc_ex.c ****         /* Get the current USART1 source */
 704:Drivers/STM32G0xx_HAL_Driver/Src/stm32g0xx_hal_rcc_ex.c ****         srcclk = __HAL_RCC_GET_USART1_SOURCE();
 705:Drivers/STM32G0xx_HAL_Driver/Src/stm32g0xx_hal_rcc_ex.c **** 
 706:Drivers/STM32G0xx_HAL_Driver/Src/stm32g0xx_hal_rcc_ex.c ****         if (srcclk == RCC_USART1CLKSOURCE_PCLK1)            /* PCLK1 ? */
 707:Drivers/STM32G0xx_HAL_Driver/Src/stm32g0xx_hal_rcc_ex.c ****         {
 708:Drivers/STM32G0xx_HAL_Driver/Src/stm32g0xx_hal_rcc_ex.c ****           frequency = HAL_RCC_GetPCLK1Freq();
 709:Drivers/STM32G0xx_HAL_Driver/Src/stm32g0xx_hal_rcc_ex.c ****         }
 710:Drivers/STM32G0xx_HAL_Driver/Src/stm32g0xx_hal_rcc_ex.c ****         else if (srcclk == RCC_USART1CLKSOURCE_SYSCLK)     /* SYSCLK ? */
 711:Drivers/STM32G0xx_HAL_Driver/Src/stm32g0xx_hal_rcc_ex.c ****         {
 712:Drivers/STM32G0xx_HAL_Driver/Src/stm32g0xx_hal_rcc_ex.c ****           frequency = HAL_RCC_GetSysClockFreq();
 713:Drivers/STM32G0xx_HAL_Driver/Src/stm32g0xx_hal_rcc_ex.c ****         }
 714:Drivers/STM32G0xx_HAL_Driver/Src/stm32g0xx_hal_rcc_ex.c ****         else if ((HAL_IS_BIT_SET(RCC->CR, RCC_CR_HSIRDY)) && (srcclk == RCC_USART1CLKSOURCE_HSI))
 715:Drivers/STM32G0xx_HAL_Driver/Src/stm32g0xx_hal_rcc_ex.c ****         {
 716:Drivers/STM32G0xx_HAL_Driver/Src/stm32g0xx_hal_rcc_ex.c ****           frequency = HSI_VALUE;
 717:Drivers/STM32G0xx_HAL_Driver/Src/stm32g0xx_hal_rcc_ex.c ****         }
 718:Drivers/STM32G0xx_HAL_Driver/Src/stm32g0xx_hal_rcc_ex.c ****         else if ((HAL_IS_BIT_SET(RCC->BDCR, RCC_BDCR_LSERDY)) && (srcclk == RCC_USART1CLKSOURCE_LSE
 719:Drivers/STM32G0xx_HAL_Driver/Src/stm32g0xx_hal_rcc_ex.c ****         {
 720:Drivers/STM32G0xx_HAL_Driver/Src/stm32g0xx_hal_rcc_ex.c ****           frequency = LSE_VALUE;
 721:Drivers/STM32G0xx_HAL_Driver/Src/stm32g0xx_hal_rcc_ex.c ****         }
 722:Drivers/STM32G0xx_HAL_Driver/Src/stm32g0xx_hal_rcc_ex.c ****         /* Clock not enabled for USART1 */
 723:Drivers/STM32G0xx_HAL_Driver/Src/stm32g0xx_hal_rcc_ex.c ****         else
 724:Drivers/STM32G0xx_HAL_Driver/Src/stm32g0xx_hal_rcc_ex.c ****         {
 725:Drivers/STM32G0xx_HAL_Driver/Src/stm32g0xx_hal_rcc_ex.c ****           /* Nothing to do as frequency already initialized to 0U */
 726:Drivers/STM32G0xx_HAL_Driver/Src/stm32g0xx_hal_rcc_ex.c ****         }
 727:Drivers/STM32G0xx_HAL_Driver/Src/stm32g0xx_hal_rcc_ex.c ****         break;
 728:Drivers/STM32G0xx_HAL_Driver/Src/stm32g0xx_hal_rcc_ex.c **** #if defined(RCC_CCIPR_USART2SEL)
 729:Drivers/STM32G0xx_HAL_Driver/Src/stm32g0xx_hal_rcc_ex.c ****       case RCC_PERIPHCLK_USART2:
 730:Drivers/STM32G0xx_HAL_Driver/Src/stm32g0xx_hal_rcc_ex.c ****         /* Get the current USART2 source */
 731:Drivers/STM32G0xx_HAL_Driver/Src/stm32g0xx_hal_rcc_ex.c ****         srcclk = __HAL_RCC_GET_USART2_SOURCE();
 732:Drivers/STM32G0xx_HAL_Driver/Src/stm32g0xx_hal_rcc_ex.c **** 
 733:Drivers/STM32G0xx_HAL_Driver/Src/stm32g0xx_hal_rcc_ex.c ****         if (srcclk == RCC_USART2CLKSOURCE_PCLK1)
 734:Drivers/STM32G0xx_HAL_Driver/Src/stm32g0xx_hal_rcc_ex.c ****         {
 735:Drivers/STM32G0xx_HAL_Driver/Src/stm32g0xx_hal_rcc_ex.c ****           frequency = HAL_RCC_GetPCLK1Freq();
 736:Drivers/STM32G0xx_HAL_Driver/Src/stm32g0xx_hal_rcc_ex.c ****         }
 737:Drivers/STM32G0xx_HAL_Driver/Src/stm32g0xx_hal_rcc_ex.c ****         else if (srcclk == RCC_USART2CLKSOURCE_SYSCLK)
 738:Drivers/STM32G0xx_HAL_Driver/Src/stm32g0xx_hal_rcc_ex.c ****         {
 739:Drivers/STM32G0xx_HAL_Driver/Src/stm32g0xx_hal_rcc_ex.c ****           frequency = HAL_RCC_GetSysClockFreq();
 740:Drivers/STM32G0xx_HAL_Driver/Src/stm32g0xx_hal_rcc_ex.c ****         }
 741:Drivers/STM32G0xx_HAL_Driver/Src/stm32g0xx_hal_rcc_ex.c ****         else if ((HAL_IS_BIT_SET(RCC->CR, RCC_CR_HSIRDY)) && (srcclk == RCC_USART2CLKSOURCE_HSI))
 742:Drivers/STM32G0xx_HAL_Driver/Src/stm32g0xx_hal_rcc_ex.c ****         {
 743:Drivers/STM32G0xx_HAL_Driver/Src/stm32g0xx_hal_rcc_ex.c ****           frequency = HSI_VALUE;
 744:Drivers/STM32G0xx_HAL_Driver/Src/stm32g0xx_hal_rcc_ex.c ****         }
 745:Drivers/STM32G0xx_HAL_Driver/Src/stm32g0xx_hal_rcc_ex.c ****         else if ((HAL_IS_BIT_SET(RCC->BDCR, RCC_BDCR_LSERDY)) && (srcclk == RCC_USART2CLKSOURCE_LSE
ARM GAS  C:\Users\Xusniyor\AppData\Local\Temp\ccusJTJw.s 			page 26


 746:Drivers/STM32G0xx_HAL_Driver/Src/stm32g0xx_hal_rcc_ex.c ****         {
 747:Drivers/STM32G0xx_HAL_Driver/Src/stm32g0xx_hal_rcc_ex.c ****           frequency = LSE_VALUE;
 748:Drivers/STM32G0xx_HAL_Driver/Src/stm32g0xx_hal_rcc_ex.c ****         }
 749:Drivers/STM32G0xx_HAL_Driver/Src/stm32g0xx_hal_rcc_ex.c ****         /* Clock not enabled for USART2 */
 750:Drivers/STM32G0xx_HAL_Driver/Src/stm32g0xx_hal_rcc_ex.c ****         else
 751:Drivers/STM32G0xx_HAL_Driver/Src/stm32g0xx_hal_rcc_ex.c ****         {
 752:Drivers/STM32G0xx_HAL_Driver/Src/stm32g0xx_hal_rcc_ex.c ****           /* Nothing to do as frequency already initialized to 0U */
 753:Drivers/STM32G0xx_HAL_Driver/Src/stm32g0xx_hal_rcc_ex.c ****         }
 754:Drivers/STM32G0xx_HAL_Driver/Src/stm32g0xx_hal_rcc_ex.c ****         break;
 755:Drivers/STM32G0xx_HAL_Driver/Src/stm32g0xx_hal_rcc_ex.c **** #endif /* RCC_CCIPR_USART2SEL */
 756:Drivers/STM32G0xx_HAL_Driver/Src/stm32g0xx_hal_rcc_ex.c **** 
 757:Drivers/STM32G0xx_HAL_Driver/Src/stm32g0xx_hal_rcc_ex.c **** #if defined(RCC_CCIPR_USART3SEL)
 758:Drivers/STM32G0xx_HAL_Driver/Src/stm32g0xx_hal_rcc_ex.c ****       case RCC_PERIPHCLK_USART3:
 759:Drivers/STM32G0xx_HAL_Driver/Src/stm32g0xx_hal_rcc_ex.c ****         /* Get the current USART3 source */
 760:Drivers/STM32G0xx_HAL_Driver/Src/stm32g0xx_hal_rcc_ex.c ****         srcclk = __HAL_RCC_GET_USART3_SOURCE();
 761:Drivers/STM32G0xx_HAL_Driver/Src/stm32g0xx_hal_rcc_ex.c **** 
 762:Drivers/STM32G0xx_HAL_Driver/Src/stm32g0xx_hal_rcc_ex.c ****         if (srcclk == RCC_USART3CLKSOURCE_PCLK1)
 763:Drivers/STM32G0xx_HAL_Driver/Src/stm32g0xx_hal_rcc_ex.c ****         {
 764:Drivers/STM32G0xx_HAL_Driver/Src/stm32g0xx_hal_rcc_ex.c ****           frequency = HAL_RCC_GetPCLK1Freq();
 765:Drivers/STM32G0xx_HAL_Driver/Src/stm32g0xx_hal_rcc_ex.c ****         }
 766:Drivers/STM32G0xx_HAL_Driver/Src/stm32g0xx_hal_rcc_ex.c ****         else if (srcclk == RCC_USART3CLKSOURCE_SYSCLK)
 767:Drivers/STM32G0xx_HAL_Driver/Src/stm32g0xx_hal_rcc_ex.c ****         {
 768:Drivers/STM32G0xx_HAL_Driver/Src/stm32g0xx_hal_rcc_ex.c ****           frequency = HAL_RCC_GetSysClockFreq();
 769:Drivers/STM32G0xx_HAL_Driver/Src/stm32g0xx_hal_rcc_ex.c ****         }
 770:Drivers/STM32G0xx_HAL_Driver/Src/stm32g0xx_hal_rcc_ex.c ****         else if ((HAL_IS_BIT_SET(RCC->CR, RCC_CR_HSIRDY)) && (srcclk == RCC_USART3CLKSOURCE_HSI))
 771:Drivers/STM32G0xx_HAL_Driver/Src/stm32g0xx_hal_rcc_ex.c ****         {
 772:Drivers/STM32G0xx_HAL_Driver/Src/stm32g0xx_hal_rcc_ex.c ****           frequency = HSI_VALUE;
 773:Drivers/STM32G0xx_HAL_Driver/Src/stm32g0xx_hal_rcc_ex.c ****         }
 774:Drivers/STM32G0xx_HAL_Driver/Src/stm32g0xx_hal_rcc_ex.c ****         else if ((HAL_IS_BIT_SET(RCC->BDCR, RCC_BDCR_LSERDY)) && (srcclk == RCC_USART3CLKSOURCE_LSE
 775:Drivers/STM32G0xx_HAL_Driver/Src/stm32g0xx_hal_rcc_ex.c ****         {
 776:Drivers/STM32G0xx_HAL_Driver/Src/stm32g0xx_hal_rcc_ex.c ****           frequency = LSE_VALUE;
 777:Drivers/STM32G0xx_HAL_Driver/Src/stm32g0xx_hal_rcc_ex.c ****         }
 778:Drivers/STM32G0xx_HAL_Driver/Src/stm32g0xx_hal_rcc_ex.c ****         /* Clock not enabled for USART3 */
 779:Drivers/STM32G0xx_HAL_Driver/Src/stm32g0xx_hal_rcc_ex.c ****         else
 780:Drivers/STM32G0xx_HAL_Driver/Src/stm32g0xx_hal_rcc_ex.c ****         {
 781:Drivers/STM32G0xx_HAL_Driver/Src/stm32g0xx_hal_rcc_ex.c ****           /* Nothing to do as frequency already initialized to 0U */
 782:Drivers/STM32G0xx_HAL_Driver/Src/stm32g0xx_hal_rcc_ex.c ****         }
 783:Drivers/STM32G0xx_HAL_Driver/Src/stm32g0xx_hal_rcc_ex.c ****         break;
 784:Drivers/STM32G0xx_HAL_Driver/Src/stm32g0xx_hal_rcc_ex.c **** #endif /* RCC_CCIPR_USART3SEL */
 785:Drivers/STM32G0xx_HAL_Driver/Src/stm32g0xx_hal_rcc_ex.c **** 
 786:Drivers/STM32G0xx_HAL_Driver/Src/stm32g0xx_hal_rcc_ex.c **** #if defined(RCC_CCIPR_CECSEL)
 787:Drivers/STM32G0xx_HAL_Driver/Src/stm32g0xx_hal_rcc_ex.c ****       case RCC_PERIPHCLK_CEC:
 788:Drivers/STM32G0xx_HAL_Driver/Src/stm32g0xx_hal_rcc_ex.c ****         /* Get the current CEC source */
 789:Drivers/STM32G0xx_HAL_Driver/Src/stm32g0xx_hal_rcc_ex.c ****         srcclk = __HAL_RCC_GET_CEC_SOURCE();
 790:Drivers/STM32G0xx_HAL_Driver/Src/stm32g0xx_hal_rcc_ex.c **** 
 791:Drivers/STM32G0xx_HAL_Driver/Src/stm32g0xx_hal_rcc_ex.c ****         if ((HAL_IS_BIT_SET(RCC->CR, RCC_CR_HSIRDY)) && (srcclk == RCC_CECCLKSOURCE_HSI_DIV488))
 792:Drivers/STM32G0xx_HAL_Driver/Src/stm32g0xx_hal_rcc_ex.c ****         {
 793:Drivers/STM32G0xx_HAL_Driver/Src/stm32g0xx_hal_rcc_ex.c ****           frequency = (HSI_VALUE / 488U);
 794:Drivers/STM32G0xx_HAL_Driver/Src/stm32g0xx_hal_rcc_ex.c ****         }
 795:Drivers/STM32G0xx_HAL_Driver/Src/stm32g0xx_hal_rcc_ex.c ****         else if ((HAL_IS_BIT_SET(RCC->BDCR, RCC_BDCR_LSERDY)) && (srcclk == RCC_CECCLKSOURCE_LSE))
 796:Drivers/STM32G0xx_HAL_Driver/Src/stm32g0xx_hal_rcc_ex.c ****         {
 797:Drivers/STM32G0xx_HAL_Driver/Src/stm32g0xx_hal_rcc_ex.c ****           frequency = LSE_VALUE;
 798:Drivers/STM32G0xx_HAL_Driver/Src/stm32g0xx_hal_rcc_ex.c ****         }
 799:Drivers/STM32G0xx_HAL_Driver/Src/stm32g0xx_hal_rcc_ex.c ****         /* Clock not enabled for CEC */
 800:Drivers/STM32G0xx_HAL_Driver/Src/stm32g0xx_hal_rcc_ex.c ****         else
 801:Drivers/STM32G0xx_HAL_Driver/Src/stm32g0xx_hal_rcc_ex.c ****         {
 802:Drivers/STM32G0xx_HAL_Driver/Src/stm32g0xx_hal_rcc_ex.c ****           /* Nothing to do as frequency already initialized to 0U */
ARM GAS  C:\Users\Xusniyor\AppData\Local\Temp\ccusJTJw.s 			page 27


 803:Drivers/STM32G0xx_HAL_Driver/Src/stm32g0xx_hal_rcc_ex.c ****         }
 804:Drivers/STM32G0xx_HAL_Driver/Src/stm32g0xx_hal_rcc_ex.c ****         break;
 805:Drivers/STM32G0xx_HAL_Driver/Src/stm32g0xx_hal_rcc_ex.c **** #endif /* RCC_CCIPR_CECSEL */
 806:Drivers/STM32G0xx_HAL_Driver/Src/stm32g0xx_hal_rcc_ex.c **** 
 807:Drivers/STM32G0xx_HAL_Driver/Src/stm32g0xx_hal_rcc_ex.c **** #if defined(RCC_CCIPR_LPUART1SEL)
 808:Drivers/STM32G0xx_HAL_Driver/Src/stm32g0xx_hal_rcc_ex.c ****       case RCC_PERIPHCLK_LPUART1:
 809:Drivers/STM32G0xx_HAL_Driver/Src/stm32g0xx_hal_rcc_ex.c ****         /* Get the current LPUART1 source */
 810:Drivers/STM32G0xx_HAL_Driver/Src/stm32g0xx_hal_rcc_ex.c ****         srcclk = __HAL_RCC_GET_LPUART1_SOURCE();
 811:Drivers/STM32G0xx_HAL_Driver/Src/stm32g0xx_hal_rcc_ex.c **** 
 812:Drivers/STM32G0xx_HAL_Driver/Src/stm32g0xx_hal_rcc_ex.c ****         if (srcclk == RCC_LPUART1CLKSOURCE_PCLK1)
 813:Drivers/STM32G0xx_HAL_Driver/Src/stm32g0xx_hal_rcc_ex.c ****         {
 814:Drivers/STM32G0xx_HAL_Driver/Src/stm32g0xx_hal_rcc_ex.c ****           frequency = HAL_RCC_GetPCLK1Freq();
 815:Drivers/STM32G0xx_HAL_Driver/Src/stm32g0xx_hal_rcc_ex.c ****         }
 816:Drivers/STM32G0xx_HAL_Driver/Src/stm32g0xx_hal_rcc_ex.c ****         else if (srcclk == RCC_LPUART1CLKSOURCE_SYSCLK)
 817:Drivers/STM32G0xx_HAL_Driver/Src/stm32g0xx_hal_rcc_ex.c ****         {
 818:Drivers/STM32G0xx_HAL_Driver/Src/stm32g0xx_hal_rcc_ex.c ****           frequency = HAL_RCC_GetSysClockFreq();
 819:Drivers/STM32G0xx_HAL_Driver/Src/stm32g0xx_hal_rcc_ex.c ****         }
 820:Drivers/STM32G0xx_HAL_Driver/Src/stm32g0xx_hal_rcc_ex.c ****         else if ((HAL_IS_BIT_SET(RCC->CR, RCC_CR_HSIRDY)) && (srcclk == RCC_LPUART1CLKSOURCE_HSI))
 821:Drivers/STM32G0xx_HAL_Driver/Src/stm32g0xx_hal_rcc_ex.c ****         {
 822:Drivers/STM32G0xx_HAL_Driver/Src/stm32g0xx_hal_rcc_ex.c ****           frequency = HSI_VALUE;
 823:Drivers/STM32G0xx_HAL_Driver/Src/stm32g0xx_hal_rcc_ex.c ****         }
 824:Drivers/STM32G0xx_HAL_Driver/Src/stm32g0xx_hal_rcc_ex.c ****         else if ((HAL_IS_BIT_SET(RCC->BDCR, RCC_BDCR_LSERDY)) && (srcclk == RCC_LPUART1CLKSOURCE_LS
 825:Drivers/STM32G0xx_HAL_Driver/Src/stm32g0xx_hal_rcc_ex.c ****         {
 826:Drivers/STM32G0xx_HAL_Driver/Src/stm32g0xx_hal_rcc_ex.c ****           frequency = LSE_VALUE;
 827:Drivers/STM32G0xx_HAL_Driver/Src/stm32g0xx_hal_rcc_ex.c ****         }
 828:Drivers/STM32G0xx_HAL_Driver/Src/stm32g0xx_hal_rcc_ex.c ****         /* Clock not enabled for LPUART1 */
 829:Drivers/STM32G0xx_HAL_Driver/Src/stm32g0xx_hal_rcc_ex.c ****         else
 830:Drivers/STM32G0xx_HAL_Driver/Src/stm32g0xx_hal_rcc_ex.c ****         {
 831:Drivers/STM32G0xx_HAL_Driver/Src/stm32g0xx_hal_rcc_ex.c ****           /* Nothing to do as frequency already initialized to 0U */
 832:Drivers/STM32G0xx_HAL_Driver/Src/stm32g0xx_hal_rcc_ex.c ****         }
 833:Drivers/STM32G0xx_HAL_Driver/Src/stm32g0xx_hal_rcc_ex.c ****         break;
 834:Drivers/STM32G0xx_HAL_Driver/Src/stm32g0xx_hal_rcc_ex.c **** #endif /* RCC_CCIPR_LPUART1SEL */
 835:Drivers/STM32G0xx_HAL_Driver/Src/stm32g0xx_hal_rcc_ex.c **** 
 836:Drivers/STM32G0xx_HAL_Driver/Src/stm32g0xx_hal_rcc_ex.c **** #if defined(RCC_CCIPR_LPUART2SEL)
 837:Drivers/STM32G0xx_HAL_Driver/Src/stm32g0xx_hal_rcc_ex.c ****       case RCC_PERIPHCLK_LPUART2:
 838:Drivers/STM32G0xx_HAL_Driver/Src/stm32g0xx_hal_rcc_ex.c ****         /* Get the current LPUART2 source */
 839:Drivers/STM32G0xx_HAL_Driver/Src/stm32g0xx_hal_rcc_ex.c ****         srcclk = __HAL_RCC_GET_LPUART2_SOURCE();
 840:Drivers/STM32G0xx_HAL_Driver/Src/stm32g0xx_hal_rcc_ex.c **** 
 841:Drivers/STM32G0xx_HAL_Driver/Src/stm32g0xx_hal_rcc_ex.c ****         if (srcclk == RCC_LPUART2CLKSOURCE_PCLK1)
 842:Drivers/STM32G0xx_HAL_Driver/Src/stm32g0xx_hal_rcc_ex.c ****         {
 843:Drivers/STM32G0xx_HAL_Driver/Src/stm32g0xx_hal_rcc_ex.c ****           frequency = HAL_RCC_GetPCLK1Freq();
 844:Drivers/STM32G0xx_HAL_Driver/Src/stm32g0xx_hal_rcc_ex.c ****         }
 845:Drivers/STM32G0xx_HAL_Driver/Src/stm32g0xx_hal_rcc_ex.c ****         else if (srcclk == RCC_LPUART2CLKSOURCE_SYSCLK)
 846:Drivers/STM32G0xx_HAL_Driver/Src/stm32g0xx_hal_rcc_ex.c ****         {
 847:Drivers/STM32G0xx_HAL_Driver/Src/stm32g0xx_hal_rcc_ex.c ****           frequency = HAL_RCC_GetSysClockFreq();
 848:Drivers/STM32G0xx_HAL_Driver/Src/stm32g0xx_hal_rcc_ex.c ****         }
 849:Drivers/STM32G0xx_HAL_Driver/Src/stm32g0xx_hal_rcc_ex.c ****         else if ((HAL_IS_BIT_SET(RCC->CR, RCC_CR_HSIRDY)) && (srcclk == RCC_LPUART2CLKSOURCE_HSI))
 850:Drivers/STM32G0xx_HAL_Driver/Src/stm32g0xx_hal_rcc_ex.c ****         {
 851:Drivers/STM32G0xx_HAL_Driver/Src/stm32g0xx_hal_rcc_ex.c ****           frequency = HSI_VALUE;
 852:Drivers/STM32G0xx_HAL_Driver/Src/stm32g0xx_hal_rcc_ex.c ****         }
 853:Drivers/STM32G0xx_HAL_Driver/Src/stm32g0xx_hal_rcc_ex.c ****         else if ((HAL_IS_BIT_SET(RCC->BDCR, RCC_BDCR_LSERDY)) && (srcclk == RCC_LPUART2CLKSOURCE_LS
 854:Drivers/STM32G0xx_HAL_Driver/Src/stm32g0xx_hal_rcc_ex.c ****         {
 855:Drivers/STM32G0xx_HAL_Driver/Src/stm32g0xx_hal_rcc_ex.c ****           frequency = LSE_VALUE;
 856:Drivers/STM32G0xx_HAL_Driver/Src/stm32g0xx_hal_rcc_ex.c ****         }
 857:Drivers/STM32G0xx_HAL_Driver/Src/stm32g0xx_hal_rcc_ex.c ****         /* Clock not enabled for LPUART2 */
 858:Drivers/STM32G0xx_HAL_Driver/Src/stm32g0xx_hal_rcc_ex.c ****         else
 859:Drivers/STM32G0xx_HAL_Driver/Src/stm32g0xx_hal_rcc_ex.c ****         {
ARM GAS  C:\Users\Xusniyor\AppData\Local\Temp\ccusJTJw.s 			page 28


 860:Drivers/STM32G0xx_HAL_Driver/Src/stm32g0xx_hal_rcc_ex.c ****           /* Nothing to do as frequency already initialized to 0U */
 861:Drivers/STM32G0xx_HAL_Driver/Src/stm32g0xx_hal_rcc_ex.c ****         }
 862:Drivers/STM32G0xx_HAL_Driver/Src/stm32g0xx_hal_rcc_ex.c ****         break;
 863:Drivers/STM32G0xx_HAL_Driver/Src/stm32g0xx_hal_rcc_ex.c **** #endif /* RCC_CCIPR_LPUART2SEL */
 864:Drivers/STM32G0xx_HAL_Driver/Src/stm32g0xx_hal_rcc_ex.c **** 
 865:Drivers/STM32G0xx_HAL_Driver/Src/stm32g0xx_hal_rcc_ex.c ****       case RCC_PERIPHCLK_ADC:
 866:Drivers/STM32G0xx_HAL_Driver/Src/stm32g0xx_hal_rcc_ex.c **** 
 867:Drivers/STM32G0xx_HAL_Driver/Src/stm32g0xx_hal_rcc_ex.c ****         srcclk = __HAL_RCC_GET_ADC_SOURCE();
 868:Drivers/STM32G0xx_HAL_Driver/Src/stm32g0xx_hal_rcc_ex.c **** 
 869:Drivers/STM32G0xx_HAL_Driver/Src/stm32g0xx_hal_rcc_ex.c ****         if (srcclk == RCC_ADCCLKSOURCE_SYSCLK)
 870:Drivers/STM32G0xx_HAL_Driver/Src/stm32g0xx_hal_rcc_ex.c ****         {
 871:Drivers/STM32G0xx_HAL_Driver/Src/stm32g0xx_hal_rcc_ex.c ****           frequency = HAL_RCC_GetSysClockFreq();
 872:Drivers/STM32G0xx_HAL_Driver/Src/stm32g0xx_hal_rcc_ex.c ****         }
 873:Drivers/STM32G0xx_HAL_Driver/Src/stm32g0xx_hal_rcc_ex.c ****         else if (srcclk == RCC_ADCCLKSOURCE_HSI)
 874:Drivers/STM32G0xx_HAL_Driver/Src/stm32g0xx_hal_rcc_ex.c ****         {
 875:Drivers/STM32G0xx_HAL_Driver/Src/stm32g0xx_hal_rcc_ex.c ****           frequency = HSI_VALUE;
 876:Drivers/STM32G0xx_HAL_Driver/Src/stm32g0xx_hal_rcc_ex.c ****         }
 877:Drivers/STM32G0xx_HAL_Driver/Src/stm32g0xx_hal_rcc_ex.c ****         else if (srcclk == RCC_ADCCLKSOURCE_PLLADC)
 878:Drivers/STM32G0xx_HAL_Driver/Src/stm32g0xx_hal_rcc_ex.c ****         {
 879:Drivers/STM32G0xx_HAL_Driver/Src/stm32g0xx_hal_rcc_ex.c ****           if (__HAL_RCC_GET_PLLCLKOUT_CONFIG(RCC_PLLPCLK) != 0U)
 880:Drivers/STM32G0xx_HAL_Driver/Src/stm32g0xx_hal_rcc_ex.c ****           {
 881:Drivers/STM32G0xx_HAL_Driver/Src/stm32g0xx_hal_rcc_ex.c ****             /* f(PLLP) = f(VCO input) * PLLN / PLLP */
 882:Drivers/STM32G0xx_HAL_Driver/Src/stm32g0xx_hal_rcc_ex.c ****             plln = READ_BIT(RCC->PLLCFGR, RCC_PLLCFGR_PLLN) >> RCC_PLLCFGR_PLLN_Pos;
 883:Drivers/STM32G0xx_HAL_Driver/Src/stm32g0xx_hal_rcc_ex.c ****             frequency = (pllvco * plln) / ((READ_BIT(RCC->PLLCFGR, RCC_PLLCFGR_PLLP) >> RCC_PLLCFGR
 884:Drivers/STM32G0xx_HAL_Driver/Src/stm32g0xx_hal_rcc_ex.c ****           }
 885:Drivers/STM32G0xx_HAL_Driver/Src/stm32g0xx_hal_rcc_ex.c ****         }
 886:Drivers/STM32G0xx_HAL_Driver/Src/stm32g0xx_hal_rcc_ex.c ****         /* Clock not enabled for ADC */
 887:Drivers/STM32G0xx_HAL_Driver/Src/stm32g0xx_hal_rcc_ex.c ****         else
 888:Drivers/STM32G0xx_HAL_Driver/Src/stm32g0xx_hal_rcc_ex.c ****         {
 889:Drivers/STM32G0xx_HAL_Driver/Src/stm32g0xx_hal_rcc_ex.c ****           /* Nothing to do as frequency already initialized to 0U */
 890:Drivers/STM32G0xx_HAL_Driver/Src/stm32g0xx_hal_rcc_ex.c ****         }
 891:Drivers/STM32G0xx_HAL_Driver/Src/stm32g0xx_hal_rcc_ex.c ****         break;
 892:Drivers/STM32G0xx_HAL_Driver/Src/stm32g0xx_hal_rcc_ex.c **** 
 893:Drivers/STM32G0xx_HAL_Driver/Src/stm32g0xx_hal_rcc_ex.c ****       case RCC_PERIPHCLK_I2C1:
 894:Drivers/STM32G0xx_HAL_Driver/Src/stm32g0xx_hal_rcc_ex.c ****         /* Get the current I2C1 source */
 895:Drivers/STM32G0xx_HAL_Driver/Src/stm32g0xx_hal_rcc_ex.c ****         srcclk = __HAL_RCC_GET_I2C1_SOURCE();
 896:Drivers/STM32G0xx_HAL_Driver/Src/stm32g0xx_hal_rcc_ex.c **** 
 897:Drivers/STM32G0xx_HAL_Driver/Src/stm32g0xx_hal_rcc_ex.c ****         if (srcclk == RCC_I2C1CLKSOURCE_PCLK1)
 898:Drivers/STM32G0xx_HAL_Driver/Src/stm32g0xx_hal_rcc_ex.c ****         {
 899:Drivers/STM32G0xx_HAL_Driver/Src/stm32g0xx_hal_rcc_ex.c ****           frequency = HAL_RCC_GetPCLK1Freq();
 900:Drivers/STM32G0xx_HAL_Driver/Src/stm32g0xx_hal_rcc_ex.c ****         }
 901:Drivers/STM32G0xx_HAL_Driver/Src/stm32g0xx_hal_rcc_ex.c ****         else if (srcclk == RCC_I2C1CLKSOURCE_SYSCLK)
 902:Drivers/STM32G0xx_HAL_Driver/Src/stm32g0xx_hal_rcc_ex.c ****         {
 903:Drivers/STM32G0xx_HAL_Driver/Src/stm32g0xx_hal_rcc_ex.c ****           frequency = HAL_RCC_GetSysClockFreq();
 904:Drivers/STM32G0xx_HAL_Driver/Src/stm32g0xx_hal_rcc_ex.c ****         }
 905:Drivers/STM32G0xx_HAL_Driver/Src/stm32g0xx_hal_rcc_ex.c ****         else if ((HAL_IS_BIT_SET(RCC->CR, RCC_CR_HSIRDY)) && (srcclk == RCC_I2C1CLKSOURCE_HSI))
 906:Drivers/STM32G0xx_HAL_Driver/Src/stm32g0xx_hal_rcc_ex.c ****         {
 907:Drivers/STM32G0xx_HAL_Driver/Src/stm32g0xx_hal_rcc_ex.c ****           frequency = HSI_VALUE;
 908:Drivers/STM32G0xx_HAL_Driver/Src/stm32g0xx_hal_rcc_ex.c ****         }
 909:Drivers/STM32G0xx_HAL_Driver/Src/stm32g0xx_hal_rcc_ex.c ****         /* Clock not enabled for I2C1 */
 910:Drivers/STM32G0xx_HAL_Driver/Src/stm32g0xx_hal_rcc_ex.c ****         else
 911:Drivers/STM32G0xx_HAL_Driver/Src/stm32g0xx_hal_rcc_ex.c ****         {
 912:Drivers/STM32G0xx_HAL_Driver/Src/stm32g0xx_hal_rcc_ex.c ****           /* Nothing to do as frequency already initialized to 0U */
 913:Drivers/STM32G0xx_HAL_Driver/Src/stm32g0xx_hal_rcc_ex.c ****         }
 914:Drivers/STM32G0xx_HAL_Driver/Src/stm32g0xx_hal_rcc_ex.c ****         break;
 915:Drivers/STM32G0xx_HAL_Driver/Src/stm32g0xx_hal_rcc_ex.c **** 
 916:Drivers/STM32G0xx_HAL_Driver/Src/stm32g0xx_hal_rcc_ex.c **** #if defined(RCC_CCIPR_I2C2SEL)
ARM GAS  C:\Users\Xusniyor\AppData\Local\Temp\ccusJTJw.s 			page 29


 917:Drivers/STM32G0xx_HAL_Driver/Src/stm32g0xx_hal_rcc_ex.c ****       case RCC_PERIPHCLK_I2C2:
 918:Drivers/STM32G0xx_HAL_Driver/Src/stm32g0xx_hal_rcc_ex.c ****         /* Get the current I2C2 source */
 919:Drivers/STM32G0xx_HAL_Driver/Src/stm32g0xx_hal_rcc_ex.c ****         srcclk = __HAL_RCC_GET_I2C2_SOURCE();
 920:Drivers/STM32G0xx_HAL_Driver/Src/stm32g0xx_hal_rcc_ex.c **** 
 921:Drivers/STM32G0xx_HAL_Driver/Src/stm32g0xx_hal_rcc_ex.c ****         if (srcclk == RCC_I2C2CLKSOURCE_PCLK1)
 922:Drivers/STM32G0xx_HAL_Driver/Src/stm32g0xx_hal_rcc_ex.c ****         {
 923:Drivers/STM32G0xx_HAL_Driver/Src/stm32g0xx_hal_rcc_ex.c ****           frequency = HAL_RCC_GetPCLK1Freq();
 924:Drivers/STM32G0xx_HAL_Driver/Src/stm32g0xx_hal_rcc_ex.c ****         }
 925:Drivers/STM32G0xx_HAL_Driver/Src/stm32g0xx_hal_rcc_ex.c ****         else if (srcclk == RCC_I2C2CLKSOURCE_SYSCLK)
 926:Drivers/STM32G0xx_HAL_Driver/Src/stm32g0xx_hal_rcc_ex.c ****         {
 927:Drivers/STM32G0xx_HAL_Driver/Src/stm32g0xx_hal_rcc_ex.c ****           frequency = HAL_RCC_GetSysClockFreq();
 928:Drivers/STM32G0xx_HAL_Driver/Src/stm32g0xx_hal_rcc_ex.c ****         }
 929:Drivers/STM32G0xx_HAL_Driver/Src/stm32g0xx_hal_rcc_ex.c ****         else if ((HAL_IS_BIT_SET(RCC->CR, RCC_CR_HSIRDY)) && (srcclk == RCC_I2C2CLKSOURCE_HSI))
 930:Drivers/STM32G0xx_HAL_Driver/Src/stm32g0xx_hal_rcc_ex.c ****         {
 931:Drivers/STM32G0xx_HAL_Driver/Src/stm32g0xx_hal_rcc_ex.c ****           frequency = HSI_VALUE;
 932:Drivers/STM32G0xx_HAL_Driver/Src/stm32g0xx_hal_rcc_ex.c ****         }
 933:Drivers/STM32G0xx_HAL_Driver/Src/stm32g0xx_hal_rcc_ex.c ****         /* Clock not enabled for I2C2 */
 934:Drivers/STM32G0xx_HAL_Driver/Src/stm32g0xx_hal_rcc_ex.c ****         else
 935:Drivers/STM32G0xx_HAL_Driver/Src/stm32g0xx_hal_rcc_ex.c ****         {
 936:Drivers/STM32G0xx_HAL_Driver/Src/stm32g0xx_hal_rcc_ex.c ****           /* Nothing to do as frequency already initialized to 0U */
 937:Drivers/STM32G0xx_HAL_Driver/Src/stm32g0xx_hal_rcc_ex.c ****         }
 938:Drivers/STM32G0xx_HAL_Driver/Src/stm32g0xx_hal_rcc_ex.c ****         break;
 939:Drivers/STM32G0xx_HAL_Driver/Src/stm32g0xx_hal_rcc_ex.c **** #endif /* RCC_CCIPR_I2C2SEL */
 940:Drivers/STM32G0xx_HAL_Driver/Src/stm32g0xx_hal_rcc_ex.c **** 
 941:Drivers/STM32G0xx_HAL_Driver/Src/stm32g0xx_hal_rcc_ex.c ****       case RCC_PERIPHCLK_I2S1:
 942:Drivers/STM32G0xx_HAL_Driver/Src/stm32g0xx_hal_rcc_ex.c ****         /* Get the current I2S1 source */
 943:Drivers/STM32G0xx_HAL_Driver/Src/stm32g0xx_hal_rcc_ex.c ****         srcclk = __HAL_RCC_GET_I2S1_SOURCE();
 944:Drivers/STM32G0xx_HAL_Driver/Src/stm32g0xx_hal_rcc_ex.c **** 
 945:Drivers/STM32G0xx_HAL_Driver/Src/stm32g0xx_hal_rcc_ex.c ****         if (srcclk == RCC_I2S1CLKSOURCE_PLL)
 946:Drivers/STM32G0xx_HAL_Driver/Src/stm32g0xx_hal_rcc_ex.c ****         {
 947:Drivers/STM32G0xx_HAL_Driver/Src/stm32g0xx_hal_rcc_ex.c ****           if (__HAL_RCC_GET_PLLCLKOUT_CONFIG(RCC_PLLPCLK) != 0U)
 948:Drivers/STM32G0xx_HAL_Driver/Src/stm32g0xx_hal_rcc_ex.c ****           {
 949:Drivers/STM32G0xx_HAL_Driver/Src/stm32g0xx_hal_rcc_ex.c ****             /* f(PLLP) = f(VCO input) * PLLN / PLLP */
 950:Drivers/STM32G0xx_HAL_Driver/Src/stm32g0xx_hal_rcc_ex.c ****             plln = READ_BIT(RCC->PLLCFGR, RCC_PLLCFGR_PLLN) >> RCC_PLLCFGR_PLLN_Pos;
 951:Drivers/STM32G0xx_HAL_Driver/Src/stm32g0xx_hal_rcc_ex.c ****             frequency = (pllvco * plln) / ((READ_BIT(RCC->PLLCFGR, RCC_PLLCFGR_PLLP) >> RCC_PLLCFGR
 952:Drivers/STM32G0xx_HAL_Driver/Src/stm32g0xx_hal_rcc_ex.c ****           }
 953:Drivers/STM32G0xx_HAL_Driver/Src/stm32g0xx_hal_rcc_ex.c ****         }
 954:Drivers/STM32G0xx_HAL_Driver/Src/stm32g0xx_hal_rcc_ex.c ****         else if (srcclk == RCC_I2S1CLKSOURCE_SYSCLK)
 955:Drivers/STM32G0xx_HAL_Driver/Src/stm32g0xx_hal_rcc_ex.c ****         {
 956:Drivers/STM32G0xx_HAL_Driver/Src/stm32g0xx_hal_rcc_ex.c ****           frequency = HAL_RCC_GetSysClockFreq();
 957:Drivers/STM32G0xx_HAL_Driver/Src/stm32g0xx_hal_rcc_ex.c ****         }
 958:Drivers/STM32G0xx_HAL_Driver/Src/stm32g0xx_hal_rcc_ex.c ****         else if ((HAL_IS_BIT_SET(RCC->CR, RCC_CR_HSIRDY)) && (srcclk == RCC_I2S1CLKSOURCE_HSI))
 959:Drivers/STM32G0xx_HAL_Driver/Src/stm32g0xx_hal_rcc_ex.c ****         {
 960:Drivers/STM32G0xx_HAL_Driver/Src/stm32g0xx_hal_rcc_ex.c ****           frequency = HSI_VALUE;
 961:Drivers/STM32G0xx_HAL_Driver/Src/stm32g0xx_hal_rcc_ex.c ****         }
 962:Drivers/STM32G0xx_HAL_Driver/Src/stm32g0xx_hal_rcc_ex.c ****         else if (srcclk == RCC_I2S1CLKSOURCE_EXT)
 963:Drivers/STM32G0xx_HAL_Driver/Src/stm32g0xx_hal_rcc_ex.c ****         {
 964:Drivers/STM32G0xx_HAL_Driver/Src/stm32g0xx_hal_rcc_ex.c ****           /* External clock used.*/
 965:Drivers/STM32G0xx_HAL_Driver/Src/stm32g0xx_hal_rcc_ex.c ****           frequency = EXTERNAL_I2S1_CLOCK_VALUE;
 966:Drivers/STM32G0xx_HAL_Driver/Src/stm32g0xx_hal_rcc_ex.c ****         }
 967:Drivers/STM32G0xx_HAL_Driver/Src/stm32g0xx_hal_rcc_ex.c ****         /* Clock not enabled for I2S1 */
 968:Drivers/STM32G0xx_HAL_Driver/Src/stm32g0xx_hal_rcc_ex.c ****         else
 969:Drivers/STM32G0xx_HAL_Driver/Src/stm32g0xx_hal_rcc_ex.c ****         {
 970:Drivers/STM32G0xx_HAL_Driver/Src/stm32g0xx_hal_rcc_ex.c ****           /* Nothing to do as frequency already initialized to 0U */
 971:Drivers/STM32G0xx_HAL_Driver/Src/stm32g0xx_hal_rcc_ex.c ****         }
 972:Drivers/STM32G0xx_HAL_Driver/Src/stm32g0xx_hal_rcc_ex.c ****         break;
 973:Drivers/STM32G0xx_HAL_Driver/Src/stm32g0xx_hal_rcc_ex.c **** 
ARM GAS  C:\Users\Xusniyor\AppData\Local\Temp\ccusJTJw.s 			page 30


 974:Drivers/STM32G0xx_HAL_Driver/Src/stm32g0xx_hal_rcc_ex.c **** #if defined(RCC_CCIPR2_I2S2SEL)
 975:Drivers/STM32G0xx_HAL_Driver/Src/stm32g0xx_hal_rcc_ex.c ****       case RCC_PERIPHCLK_I2S2:
 976:Drivers/STM32G0xx_HAL_Driver/Src/stm32g0xx_hal_rcc_ex.c ****         /* Get the current I2S2 source */
 977:Drivers/STM32G0xx_HAL_Driver/Src/stm32g0xx_hal_rcc_ex.c ****         srcclk = __HAL_RCC_GET_I2S2_SOURCE();
 978:Drivers/STM32G0xx_HAL_Driver/Src/stm32g0xx_hal_rcc_ex.c **** 
 979:Drivers/STM32G0xx_HAL_Driver/Src/stm32g0xx_hal_rcc_ex.c ****         if (srcclk == RCC_I2S2CLKSOURCE_PLL)
 980:Drivers/STM32G0xx_HAL_Driver/Src/stm32g0xx_hal_rcc_ex.c ****         {
 981:Drivers/STM32G0xx_HAL_Driver/Src/stm32g0xx_hal_rcc_ex.c ****           if (__HAL_RCC_GET_PLLCLKOUT_CONFIG(RCC_PLLPCLK) != 0U)
 982:Drivers/STM32G0xx_HAL_Driver/Src/stm32g0xx_hal_rcc_ex.c ****           {
 983:Drivers/STM32G0xx_HAL_Driver/Src/stm32g0xx_hal_rcc_ex.c ****             /* f(PLLP) = f(VCO input) * PLLN / PLLP */
 984:Drivers/STM32G0xx_HAL_Driver/Src/stm32g0xx_hal_rcc_ex.c ****             plln = READ_BIT(RCC->PLLCFGR, RCC_PLLCFGR_PLLN) >> RCC_PLLCFGR_PLLN_Pos;
 985:Drivers/STM32G0xx_HAL_Driver/Src/stm32g0xx_hal_rcc_ex.c ****             frequency = (pllvco * plln) / ((READ_BIT(RCC->PLLCFGR, RCC_PLLCFGR_PLLP) >> RCC_PLLCFGR
 986:Drivers/STM32G0xx_HAL_Driver/Src/stm32g0xx_hal_rcc_ex.c ****           }
 987:Drivers/STM32G0xx_HAL_Driver/Src/stm32g0xx_hal_rcc_ex.c ****         }
 988:Drivers/STM32G0xx_HAL_Driver/Src/stm32g0xx_hal_rcc_ex.c ****         else if (srcclk == RCC_I2S2CLKSOURCE_SYSCLK)
 989:Drivers/STM32G0xx_HAL_Driver/Src/stm32g0xx_hal_rcc_ex.c ****         {
 990:Drivers/STM32G0xx_HAL_Driver/Src/stm32g0xx_hal_rcc_ex.c ****           frequency = HAL_RCC_GetSysClockFreq();
 991:Drivers/STM32G0xx_HAL_Driver/Src/stm32g0xx_hal_rcc_ex.c ****         }
 992:Drivers/STM32G0xx_HAL_Driver/Src/stm32g0xx_hal_rcc_ex.c ****         else if ((HAL_IS_BIT_SET(RCC->CR, RCC_CR_HSIRDY)) && (srcclk == RCC_I2S2CLKSOURCE_HSI))
 993:Drivers/STM32G0xx_HAL_Driver/Src/stm32g0xx_hal_rcc_ex.c ****         {
 994:Drivers/STM32G0xx_HAL_Driver/Src/stm32g0xx_hal_rcc_ex.c ****           frequency = HSI_VALUE;
 995:Drivers/STM32G0xx_HAL_Driver/Src/stm32g0xx_hal_rcc_ex.c ****         }
 996:Drivers/STM32G0xx_HAL_Driver/Src/stm32g0xx_hal_rcc_ex.c ****         else if (srcclk == RCC_I2S2CLKSOURCE_EXT)
 997:Drivers/STM32G0xx_HAL_Driver/Src/stm32g0xx_hal_rcc_ex.c ****         {
 998:Drivers/STM32G0xx_HAL_Driver/Src/stm32g0xx_hal_rcc_ex.c ****           /* External clock used.*/
 999:Drivers/STM32G0xx_HAL_Driver/Src/stm32g0xx_hal_rcc_ex.c ****           frequency = EXTERNAL_I2S2_CLOCK_VALUE;
1000:Drivers/STM32G0xx_HAL_Driver/Src/stm32g0xx_hal_rcc_ex.c ****         }
1001:Drivers/STM32G0xx_HAL_Driver/Src/stm32g0xx_hal_rcc_ex.c ****         /* Clock not enabled for I2S2 */
1002:Drivers/STM32G0xx_HAL_Driver/Src/stm32g0xx_hal_rcc_ex.c ****         else
1003:Drivers/STM32G0xx_HAL_Driver/Src/stm32g0xx_hal_rcc_ex.c ****         {
1004:Drivers/STM32G0xx_HAL_Driver/Src/stm32g0xx_hal_rcc_ex.c ****           /* Nothing to do as frequency already initialized to 0U */
1005:Drivers/STM32G0xx_HAL_Driver/Src/stm32g0xx_hal_rcc_ex.c ****         }
1006:Drivers/STM32G0xx_HAL_Driver/Src/stm32g0xx_hal_rcc_ex.c ****         break;
1007:Drivers/STM32G0xx_HAL_Driver/Src/stm32g0xx_hal_rcc_ex.c **** #endif /* RCC_CCIPR2_I2S2SEL */
1008:Drivers/STM32G0xx_HAL_Driver/Src/stm32g0xx_hal_rcc_ex.c **** 
1009:Drivers/STM32G0xx_HAL_Driver/Src/stm32g0xx_hal_rcc_ex.c **** #if defined(RCC_CCIPR_LPTIM1SEL)
1010:Drivers/STM32G0xx_HAL_Driver/Src/stm32g0xx_hal_rcc_ex.c ****       case RCC_PERIPHCLK_LPTIM1:
1011:Drivers/STM32G0xx_HAL_Driver/Src/stm32g0xx_hal_rcc_ex.c ****         /* Get the current LPTIM1 source */
1012:Drivers/STM32G0xx_HAL_Driver/Src/stm32g0xx_hal_rcc_ex.c ****         srcclk = __HAL_RCC_GET_LPTIM1_SOURCE();
 666              		.loc 1 1012 9 view .LVU182
 667              		.loc 1 1012 18 is_stmt 0 view .LVU183
 668 0056 AB4B     		ldr	r3, .L108
 669 0058 5A6D     		ldr	r2, [r3, #84]
 670              		.loc 1 1012 16 view .LVU184
 671 005a C023     		movs	r3, #192
 672 005c 1B03     		lsls	r3, r3, #12
 673 005e 1100     		movs	r1, r2
 674 0060 1940     		ands	r1, r3
 675              	.LVL35:
1013:Drivers/STM32G0xx_HAL_Driver/Src/stm32g0xx_hal_rcc_ex.c **** 
1014:Drivers/STM32G0xx_HAL_Driver/Src/stm32g0xx_hal_rcc_ex.c ****         if (srcclk == RCC_LPTIM1CLKSOURCE_PCLK1)
 676              		.loc 1 1014 9 is_stmt 1 view .LVU185
 677              		.loc 1 1014 12 is_stmt 0 view .LVU186
 678 0062 1A42     		tst	r2, r3
 679 0064 00D1     		bne	.LCB654
 680 0066 4AE1     		b	.L93	@long jump
 681              	.LCB654:
ARM GAS  C:\Users\Xusniyor\AppData\Local\Temp\ccusJTJw.s 			page 31


1015:Drivers/STM32G0xx_HAL_Driver/Src/stm32g0xx_hal_rcc_ex.c ****         {
1016:Drivers/STM32G0xx_HAL_Driver/Src/stm32g0xx_hal_rcc_ex.c ****           frequency = HAL_RCC_GetPCLK1Freq();
1017:Drivers/STM32G0xx_HAL_Driver/Src/stm32g0xx_hal_rcc_ex.c ****         }
1018:Drivers/STM32G0xx_HAL_Driver/Src/stm32g0xx_hal_rcc_ex.c ****         else if ((HAL_IS_BIT_SET(RCC->CSR, RCC_CSR_LSIRDY)) && (srcclk == RCC_LPTIM1CLKSOURCE_LSI))
 682              		.loc 1 1018 14 is_stmt 1 view .LVU187
 683              		.loc 1 1018 19 is_stmt 0 view .LVU188
 684 0068 A64B     		ldr	r3, .L108
 685 006a 1B6E     		ldr	r3, [r3, #96]
 686              		.loc 1 1018 17 view .LVU189
 687 006c 9B07     		lsls	r3, r3, #30
 688 006e 04D5     		bpl	.L63
 689              		.loc 1 1018 61 discriminator 1 view .LVU190
 690 0070 8023     		movs	r3, #128
 691 0072 DB02     		lsls	r3, r3, #11
 692 0074 9942     		cmp	r1, r3
 693 0076 00D1     		bne	.LCB665
 694 0078 90E1     		b	.L83	@long jump
 695              	.LCB665:
 696              	.L63:
1019:Drivers/STM32G0xx_HAL_Driver/Src/stm32g0xx_hal_rcc_ex.c ****         {
1020:Drivers/STM32G0xx_HAL_Driver/Src/stm32g0xx_hal_rcc_ex.c ****           frequency = LSI_VALUE;
1021:Drivers/STM32G0xx_HAL_Driver/Src/stm32g0xx_hal_rcc_ex.c ****         }
1022:Drivers/STM32G0xx_HAL_Driver/Src/stm32g0xx_hal_rcc_ex.c ****         else if ((HAL_IS_BIT_SET(RCC->CR, RCC_CR_HSIRDY)) && (srcclk == RCC_LPTIM1CLKSOURCE_HSI))
 697              		.loc 1 1022 14 is_stmt 1 view .LVU191
 698              		.loc 1 1022 19 is_stmt 0 view .LVU192
 699 007a A24B     		ldr	r3, .L108
 700 007c 1B68     		ldr	r3, [r3]
 701              		.loc 1 1022 17 view .LVU193
 702 007e 5B05     		lsls	r3, r3, #21
 703 0080 04D5     		bpl	.L64
 704              		.loc 1 1022 59 discriminator 1 view .LVU194
 705 0082 8023     		movs	r3, #128
 706 0084 1B03     		lsls	r3, r3, #12
 707 0086 9942     		cmp	r1, r3
 708 0088 00D1     		bne	.LCB677
 709 008a 8AE1     		b	.L84	@long jump
 710              	.LCB677:
 711              	.L64:
1023:Drivers/STM32G0xx_HAL_Driver/Src/stm32g0xx_hal_rcc_ex.c ****         {
1024:Drivers/STM32G0xx_HAL_Driver/Src/stm32g0xx_hal_rcc_ex.c ****           frequency = HSI_VALUE;
1025:Drivers/STM32G0xx_HAL_Driver/Src/stm32g0xx_hal_rcc_ex.c ****         }
1026:Drivers/STM32G0xx_HAL_Driver/Src/stm32g0xx_hal_rcc_ex.c ****         else if ((HAL_IS_BIT_SET(RCC->BDCR, RCC_BDCR_LSERDY)) && (srcclk == RCC_LPTIM1CLKSOURCE_LSE
 712              		.loc 1 1026 14 is_stmt 1 view .LVU195
 713              		.loc 1 1026 19 is_stmt 0 view .LVU196
 714 008c 9D4B     		ldr	r3, .L108
 715 008e DB6D     		ldr	r3, [r3, #92]
 716 0090 0222     		movs	r2, #2
 717 0092 1000     		movs	r0, r2
 718              	.LVL36:
 719              		.loc 1 1026 19 view .LVU197
 720 0094 1840     		ands	r0, r3
 721              		.loc 1 1026 17 view .LVU198
 722 0096 1A42     		tst	r2, r3
 723 0098 5CD0     		beq	.L34
 724              		.loc 1 1026 63 discriminator 1 view .LVU199
 725 009a C023     		movs	r3, #192
 726 009c 1B03     		lsls	r3, r3, #12
ARM GAS  C:\Users\Xusniyor\AppData\Local\Temp\ccusJTJw.s 			page 32


 727 009e 9942     		cmp	r1, r3
 728 00a0 00D1     		bne	.LCB691
 729 00a2 80E1     		b	.L85	@long jump
 730              	.LCB691:
 614:Drivers/STM32G0xx_HAL_Driver/Src/stm32g0xx_hal_rcc_ex.c ****   uint32_t srcclk;
 731              		.loc 1 614 12 view .LVU200
 732 00a4 0020     		movs	r0, #0
 733 00a6 55E0     		b	.L34
 734              	.LVL37:
 735              	.L89:
 628:Drivers/STM32G0xx_HAL_Driver/Src/stm32g0xx_hal_rcc_ex.c **** 
 736              		.loc 1 628 5 is_stmt 1 view .LVU201
 628:Drivers/STM32G0xx_HAL_Driver/Src/stm32g0xx_hal_rcc_ex.c **** 
 737              		.loc 1 628 14 is_stmt 0 view .LVU202
 738 00a8 964A     		ldr	r2, .L108
 739 00aa D36D     		ldr	r3, [r2, #92]
 628:Drivers/STM32G0xx_HAL_Driver/Src/stm32g0xx_hal_rcc_ex.c **** 
 740              		.loc 1 628 12 view .LVU203
 741 00ac C021     		movs	r1, #192
 742 00ae 8900     		lsls	r1, r1, #2
 743 00b0 0B40     		ands	r3, r1
 744              	.LVL38:
 631:Drivers/STM32G0xx_HAL_Driver/Src/stm32g0xx_hal_rcc_ex.c ****     {
 745              		.loc 1 631 5 is_stmt 1 view .LVU204
 631:Drivers/STM32G0xx_HAL_Driver/Src/stm32g0xx_hal_rcc_ex.c ****     {
 746              		.loc 1 631 10 is_stmt 0 view .LVU205
 747 00b2 D26D     		ldr	r2, [r2, #92]
 631:Drivers/STM32G0xx_HAL_Driver/Src/stm32g0xx_hal_rcc_ex.c ****     {
 748              		.loc 1 631 8 view .LVU206
 749 00b4 9207     		lsls	r2, r2, #30
 750 00b6 04D5     		bpl	.L36
 631:Drivers/STM32G0xx_HAL_Driver/Src/stm32g0xx_hal_rcc_ex.c ****     {
 751              		.loc 1 631 54 discriminator 1 view .LVU207
 752 00b8 8022     		movs	r2, #128
 753 00ba 5200     		lsls	r2, r2, #1
 754 00bc 9342     		cmp	r3, r2
 755 00be 00D1     		bne	.LCB716
 756 00c0 52E1     		b	.L69	@long jump
 757              	.LCB716:
 758              	.L36:
 636:Drivers/STM32G0xx_HAL_Driver/Src/stm32g0xx_hal_rcc_ex.c ****     {
 759              		.loc 1 636 10 is_stmt 1 view .LVU208
 636:Drivers/STM32G0xx_HAL_Driver/Src/stm32g0xx_hal_rcc_ex.c ****     {
 760              		.loc 1 636 15 is_stmt 0 view .LVU209
 761 00c2 904A     		ldr	r2, .L108
 762 00c4 126E     		ldr	r2, [r2, #96]
 636:Drivers/STM32G0xx_HAL_Driver/Src/stm32g0xx_hal_rcc_ex.c ****     {
 763              		.loc 1 636 13 view .LVU210
 764 00c6 9207     		lsls	r2, r2, #30
 765 00c8 04D5     		bpl	.L38
 636:Drivers/STM32G0xx_HAL_Driver/Src/stm32g0xx_hal_rcc_ex.c ****     {
 766              		.loc 1 636 57 discriminator 1 view .LVU211
 767 00ca 8022     		movs	r2, #128
 768 00cc 9200     		lsls	r2, r2, #2
 769 00ce 9342     		cmp	r3, r2
 770 00d0 00D1     		bne	.LCB728
 771 00d2 4CE1     		b	.L70	@long jump
ARM GAS  C:\Users\Xusniyor\AppData\Local\Temp\ccusJTJw.s 			page 33


 772              	.LCB728:
 773              	.L38:
 641:Drivers/STM32G0xx_HAL_Driver/Src/stm32g0xx_hal_rcc_ex.c ****     {
 774              		.loc 1 641 10 is_stmt 1 view .LVU212
 641:Drivers/STM32G0xx_HAL_Driver/Src/stm32g0xx_hal_rcc_ex.c ****     {
 775              		.loc 1 641 15 is_stmt 0 view .LVU213
 776 00d4 8B4A     		ldr	r2, .L108
 777 00d6 1168     		ldr	r1, [r2]
 778 00d8 8022     		movs	r2, #128
 779 00da 9202     		lsls	r2, r2, #10
 780 00dc 0800     		movs	r0, r1
 781              	.LVL39:
 641:Drivers/STM32G0xx_HAL_Driver/Src/stm32g0xx_hal_rcc_ex.c ****     {
 782              		.loc 1 641 15 view .LVU214
 783 00de 1040     		ands	r0, r2
 641:Drivers/STM32G0xx_HAL_Driver/Src/stm32g0xx_hal_rcc_ex.c ****     {
 784              		.loc 1 641 13 view .LVU215
 785 00e0 1142     		tst	r1, r2
 786 00e2 37D0     		beq	.L34
 641:Drivers/STM32G0xx_HAL_Driver/Src/stm32g0xx_hal_rcc_ex.c ****     {
 787              		.loc 1 641 55 discriminator 1 view .LVU216
 788 00e4 C022     		movs	r2, #192
 789 00e6 9200     		lsls	r2, r2, #2
 790 00e8 9342     		cmp	r3, r2
 791 00ea 00D1     		bne	.LCB743
 792 00ec 42E1     		b	.L71	@long jump
 793              	.LCB743:
 614:Drivers/STM32G0xx_HAL_Driver/Src/stm32g0xx_hal_rcc_ex.c ****   uint32_t srcclk;
 794              		.loc 1 614 12 view .LVU217
 795 00ee 0020     		movs	r0, #0
 796 00f0 30E0     		b	.L34
 797              	.LVL40:
 798              	.L90:
 662:Drivers/STM32G0xx_HAL_Driver/Src/stm32g0xx_hal_rcc_ex.c ****     }
 799              		.loc 1 662 14 view .LVU218
 800 00f2 8548     		ldr	r0, .L108+4
 801              	.LVL41:
 662:Drivers/STM32G0xx_HAL_Driver/Src/stm32g0xx_hal_rcc_ex.c ****     }
 802              		.loc 1 662 14 view .LVU219
 803 00f4 97E7     		b	.L39
 804              	.LVL42:
 805              	.L72:
 658:Drivers/STM32G0xx_HAL_Driver/Src/stm32g0xx_hal_rcc_ex.c ****     }
 806              		.loc 1 658 14 view .LVU220
 807 00f6 8548     		ldr	r0, .L108+8
 808              	.LVL43:
 658:Drivers/STM32G0xx_HAL_Driver/Src/stm32g0xx_hal_rcc_ex.c ****     }
 809              		.loc 1 658 14 view .LVU221
 810 00f8 95E7     		b	.L39
 811              	.LVL44:
 812              	.L91:
 672:Drivers/STM32G0xx_HAL_Driver/Src/stm32g0xx_hal_rcc_ex.c ****     {
 813              		.loc 1 672 5 view .LVU222
 814 00fa 012C     		cmp	r4, #1
 815 00fc 00D1     		bne	.LCB766
 816 00fe 70E0     		b	.L44	@long jump
 817              	.LCB766:
ARM GAS  C:\Users\Xusniyor\AppData\Local\Temp\ccusJTJw.s 			page 34


 818 0100 102C     		cmp	r4, #16
 819 0102 24D1     		bne	.L94
 810:Drivers/STM32G0xx_HAL_Driver/Src/stm32g0xx_hal_rcc_ex.c **** 
 820              		.loc 1 810 9 is_stmt 1 view .LVU223
 810:Drivers/STM32G0xx_HAL_Driver/Src/stm32g0xx_hal_rcc_ex.c **** 
 821              		.loc 1 810 18 is_stmt 0 view .LVU224
 822 0104 7F4B     		ldr	r3, .L108
 823 0106 5A6D     		ldr	r2, [r3, #84]
 810:Drivers/STM32G0xx_HAL_Driver/Src/stm32g0xx_hal_rcc_ex.c **** 
 824              		.loc 1 810 16 view .LVU225
 825 0108 C023     		movs	r3, #192
 826 010a 1B01     		lsls	r3, r3, #4
 827 010c 1100     		movs	r1, r2
 828 010e 1940     		ands	r1, r3
 829              	.LVL45:
 812:Drivers/STM32G0xx_HAL_Driver/Src/stm32g0xx_hal_rcc_ex.c ****         {
 830              		.loc 1 812 9 is_stmt 1 view .LVU226
 812:Drivers/STM32G0xx_HAL_Driver/Src/stm32g0xx_hal_rcc_ex.c ****         {
 831              		.loc 1 812 12 is_stmt 0 view .LVU227
 832 0110 1A42     		tst	r2, r3
 833 0112 00D1     		bne	.LCB779
 834 0114 87E0     		b	.L95	@long jump
 835              	.LCB779:
 816:Drivers/STM32G0xx_HAL_Driver/Src/stm32g0xx_hal_rcc_ex.c ****         {
 836              		.loc 1 816 14 is_stmt 1 view .LVU228
 816:Drivers/STM32G0xx_HAL_Driver/Src/stm32g0xx_hal_rcc_ex.c ****         {
 837              		.loc 1 816 17 is_stmt 0 view .LVU229
 838 0116 8023     		movs	r3, #128
 839 0118 DB00     		lsls	r3, r3, #3
 840 011a 9942     		cmp	r1, r3
 841 011c 00D1     		bne	.LCB784
 842 011e 85E0     		b	.L96	@long jump
 843              	.LCB784:
 820:Drivers/STM32G0xx_HAL_Driver/Src/stm32g0xx_hal_rcc_ex.c ****         {
 844              		.loc 1 820 14 is_stmt 1 view .LVU230
 820:Drivers/STM32G0xx_HAL_Driver/Src/stm32g0xx_hal_rcc_ex.c ****         {
 845              		.loc 1 820 19 is_stmt 0 view .LVU231
 846 0120 784B     		ldr	r3, .L108
 847 0122 1B68     		ldr	r3, [r3]
 820:Drivers/STM32G0xx_HAL_Driver/Src/stm32g0xx_hal_rcc_ex.c ****         {
 848              		.loc 1 820 17 view .LVU232
 849 0124 5B05     		lsls	r3, r3, #21
 850 0126 04D5     		bpl	.L55
 820:Drivers/STM32G0xx_HAL_Driver/Src/stm32g0xx_hal_rcc_ex.c ****         {
 851              		.loc 1 820 59 discriminator 1 view .LVU233
 852 0128 8023     		movs	r3, #128
 853 012a 1B01     		lsls	r3, r3, #4
 854 012c 9942     		cmp	r1, r3
 855 012e 00D1     		bne	.LCB795
 856 0130 27E1     		b	.L76	@long jump
 857              	.LCB795:
 858              	.L55:
 824:Drivers/STM32G0xx_HAL_Driver/Src/stm32g0xx_hal_rcc_ex.c ****         {
 859              		.loc 1 824 14 is_stmt 1 view .LVU234
 824:Drivers/STM32G0xx_HAL_Driver/Src/stm32g0xx_hal_rcc_ex.c ****         {
 860              		.loc 1 824 19 is_stmt 0 view .LVU235
 861 0132 744B     		ldr	r3, .L108
ARM GAS  C:\Users\Xusniyor\AppData\Local\Temp\ccusJTJw.s 			page 35


 862 0134 DB6D     		ldr	r3, [r3, #92]
 863 0136 0222     		movs	r2, #2
 864 0138 1000     		movs	r0, r2
 865              	.LVL46:
 824:Drivers/STM32G0xx_HAL_Driver/Src/stm32g0xx_hal_rcc_ex.c ****         {
 866              		.loc 1 824 19 view .LVU236
 867 013a 1840     		ands	r0, r3
 824:Drivers/STM32G0xx_HAL_Driver/Src/stm32g0xx_hal_rcc_ex.c ****         {
 868              		.loc 1 824 17 view .LVU237
 869 013c 1A42     		tst	r2, r3
 870 013e 09D0     		beq	.L34
 824:Drivers/STM32G0xx_HAL_Driver/Src/stm32g0xx_hal_rcc_ex.c ****         {
 871              		.loc 1 824 63 discriminator 1 view .LVU238
 872 0140 C023     		movs	r3, #192
 873 0142 1B01     		lsls	r3, r3, #4
 874 0144 9942     		cmp	r1, r3
 875 0146 00D1     		bne	.LCB809
 876 0148 1DE1     		b	.L77	@long jump
 877              	.LCB809:
 614:Drivers/STM32G0xx_HAL_Driver/Src/stm32g0xx_hal_rcc_ex.c ****   uint32_t srcclk;
 878              		.loc 1 614 12 view .LVU239
 879 014a 0020     		movs	r0, #0
 880 014c 02E0     		b	.L34
 881              	.LVL47:
 882              	.L94:
 672:Drivers/STM32G0xx_HAL_Driver/Src/stm32g0xx_hal_rcc_ex.c ****     {
 883              		.loc 1 672 5 view .LVU240
 884 014e 0020     		movs	r0, #0
 885              	.LVL48:
 672:Drivers/STM32G0xx_HAL_Driver/Src/stm32g0xx_hal_rcc_ex.c ****     {
 886              		.loc 1 672 5 view .LVU241
 887 0150 00E0     		b	.L34
 888              	.LVL49:
 889              	.L92:
 672:Drivers/STM32G0xx_HAL_Driver/Src/stm32g0xx_hal_rcc_ex.c ****     {
 890              		.loc 1 672 5 view .LVU242
 891 0152 0020     		movs	r0, #0
 892              	.LVL50:
 893              	.L34:
1027:Drivers/STM32G0xx_HAL_Driver/Src/stm32g0xx_hal_rcc_ex.c ****         {
1028:Drivers/STM32G0xx_HAL_Driver/Src/stm32g0xx_hal_rcc_ex.c ****           frequency = LSE_VALUE;
1029:Drivers/STM32G0xx_HAL_Driver/Src/stm32g0xx_hal_rcc_ex.c ****         }
1030:Drivers/STM32G0xx_HAL_Driver/Src/stm32g0xx_hal_rcc_ex.c ****         /* Clock not enabled for LPTIM1 */
1031:Drivers/STM32G0xx_HAL_Driver/Src/stm32g0xx_hal_rcc_ex.c ****         else
1032:Drivers/STM32G0xx_HAL_Driver/Src/stm32g0xx_hal_rcc_ex.c ****         {
1033:Drivers/STM32G0xx_HAL_Driver/Src/stm32g0xx_hal_rcc_ex.c ****           /* Nothing to do as frequency already initialized to 0U */
1034:Drivers/STM32G0xx_HAL_Driver/Src/stm32g0xx_hal_rcc_ex.c ****         }
1035:Drivers/STM32G0xx_HAL_Driver/Src/stm32g0xx_hal_rcc_ex.c ****         break;
1036:Drivers/STM32G0xx_HAL_Driver/Src/stm32g0xx_hal_rcc_ex.c **** #endif /* RCC_CCIPR_LPTIM1SEL */
1037:Drivers/STM32G0xx_HAL_Driver/Src/stm32g0xx_hal_rcc_ex.c **** 
1038:Drivers/STM32G0xx_HAL_Driver/Src/stm32g0xx_hal_rcc_ex.c **** #if defined(RCC_CCIPR_LPTIM2SEL)
1039:Drivers/STM32G0xx_HAL_Driver/Src/stm32g0xx_hal_rcc_ex.c ****       case RCC_PERIPHCLK_LPTIM2:
1040:Drivers/STM32G0xx_HAL_Driver/Src/stm32g0xx_hal_rcc_ex.c ****         /* Get the current LPTIM2 source */
1041:Drivers/STM32G0xx_HAL_Driver/Src/stm32g0xx_hal_rcc_ex.c ****         srcclk = __HAL_RCC_GET_LPTIM2_SOURCE();
1042:Drivers/STM32G0xx_HAL_Driver/Src/stm32g0xx_hal_rcc_ex.c **** 
1043:Drivers/STM32G0xx_HAL_Driver/Src/stm32g0xx_hal_rcc_ex.c ****         if (srcclk == RCC_LPTIM2CLKSOURCE_PCLK1)
1044:Drivers/STM32G0xx_HAL_Driver/Src/stm32g0xx_hal_rcc_ex.c ****         {
ARM GAS  C:\Users\Xusniyor\AppData\Local\Temp\ccusJTJw.s 			page 36


1045:Drivers/STM32G0xx_HAL_Driver/Src/stm32g0xx_hal_rcc_ex.c ****           frequency = HAL_RCC_GetPCLK1Freq();
1046:Drivers/STM32G0xx_HAL_Driver/Src/stm32g0xx_hal_rcc_ex.c ****         }
1047:Drivers/STM32G0xx_HAL_Driver/Src/stm32g0xx_hal_rcc_ex.c ****         else if ((HAL_IS_BIT_SET(RCC->CSR, RCC_CSR_LSIRDY)) && (srcclk == RCC_LPTIM2CLKSOURCE_LSI))
1048:Drivers/STM32G0xx_HAL_Driver/Src/stm32g0xx_hal_rcc_ex.c ****         {
1049:Drivers/STM32G0xx_HAL_Driver/Src/stm32g0xx_hal_rcc_ex.c ****           frequency = LSI_VALUE;
1050:Drivers/STM32G0xx_HAL_Driver/Src/stm32g0xx_hal_rcc_ex.c ****         }
1051:Drivers/STM32G0xx_HAL_Driver/Src/stm32g0xx_hal_rcc_ex.c ****         else if ((HAL_IS_BIT_SET(RCC->CR, RCC_CR_HSIRDY)) && (srcclk == RCC_LPTIM2CLKSOURCE_HSI))
1052:Drivers/STM32G0xx_HAL_Driver/Src/stm32g0xx_hal_rcc_ex.c ****         {
1053:Drivers/STM32G0xx_HAL_Driver/Src/stm32g0xx_hal_rcc_ex.c ****           frequency = HSI_VALUE;
1054:Drivers/STM32G0xx_HAL_Driver/Src/stm32g0xx_hal_rcc_ex.c ****         }
1055:Drivers/STM32G0xx_HAL_Driver/Src/stm32g0xx_hal_rcc_ex.c ****         else if ((HAL_IS_BIT_SET(RCC->BDCR, RCC_BDCR_LSERDY)) && (srcclk == RCC_LPTIM2CLKSOURCE_LSE
1056:Drivers/STM32G0xx_HAL_Driver/Src/stm32g0xx_hal_rcc_ex.c ****         {
1057:Drivers/STM32G0xx_HAL_Driver/Src/stm32g0xx_hal_rcc_ex.c ****           frequency = LSE_VALUE;
1058:Drivers/STM32G0xx_HAL_Driver/Src/stm32g0xx_hal_rcc_ex.c ****         }
1059:Drivers/STM32G0xx_HAL_Driver/Src/stm32g0xx_hal_rcc_ex.c ****         /* Clock not enabled for LPTIM2 */
1060:Drivers/STM32G0xx_HAL_Driver/Src/stm32g0xx_hal_rcc_ex.c ****         else
1061:Drivers/STM32G0xx_HAL_Driver/Src/stm32g0xx_hal_rcc_ex.c ****         {
1062:Drivers/STM32G0xx_HAL_Driver/Src/stm32g0xx_hal_rcc_ex.c ****           /* Nothing to do as frequency already initialized to 0U */
1063:Drivers/STM32G0xx_HAL_Driver/Src/stm32g0xx_hal_rcc_ex.c ****         }
1064:Drivers/STM32G0xx_HAL_Driver/Src/stm32g0xx_hal_rcc_ex.c ****         break;
1065:Drivers/STM32G0xx_HAL_Driver/Src/stm32g0xx_hal_rcc_ex.c **** #endif /* RCC_CCIPR_LPTIM2SEL */
1066:Drivers/STM32G0xx_HAL_Driver/Src/stm32g0xx_hal_rcc_ex.c **** 
1067:Drivers/STM32G0xx_HAL_Driver/Src/stm32g0xx_hal_rcc_ex.c **** #if defined(RCC_CCIPR_TIM1SEL)
1068:Drivers/STM32G0xx_HAL_Driver/Src/stm32g0xx_hal_rcc_ex.c ****       case RCC_PERIPHCLK_TIM1:
1069:Drivers/STM32G0xx_HAL_Driver/Src/stm32g0xx_hal_rcc_ex.c **** 
1070:Drivers/STM32G0xx_HAL_Driver/Src/stm32g0xx_hal_rcc_ex.c ****         srcclk = READ_BIT(RCC->CCIPR, RCC_CCIPR_TIM1SEL);
1071:Drivers/STM32G0xx_HAL_Driver/Src/stm32g0xx_hal_rcc_ex.c **** 
1072:Drivers/STM32G0xx_HAL_Driver/Src/stm32g0xx_hal_rcc_ex.c ****         if (srcclk == RCC_TIM1CLKSOURCE_PLL) /* PLL ? */
1073:Drivers/STM32G0xx_HAL_Driver/Src/stm32g0xx_hal_rcc_ex.c ****         {
1074:Drivers/STM32G0xx_HAL_Driver/Src/stm32g0xx_hal_rcc_ex.c ****           if (__HAL_RCC_GET_PLLCLKOUT_CONFIG(RCC_PLLQCLK) != 0U)
1075:Drivers/STM32G0xx_HAL_Driver/Src/stm32g0xx_hal_rcc_ex.c ****           {
1076:Drivers/STM32G0xx_HAL_Driver/Src/stm32g0xx_hal_rcc_ex.c ****             /* f(PLLQ) = f(VCO input) * PLLN / PLLQ */
1077:Drivers/STM32G0xx_HAL_Driver/Src/stm32g0xx_hal_rcc_ex.c ****             plln = READ_BIT(RCC->PLLCFGR, RCC_PLLCFGR_PLLN) >> RCC_PLLCFGR_PLLN_Pos;
1078:Drivers/STM32G0xx_HAL_Driver/Src/stm32g0xx_hal_rcc_ex.c ****             frequency = (pllvco * plln) / ((READ_BIT(RCC->PLLCFGR, RCC_PLLCFGR_PLLQ) >> RCC_PLLCFGR
1079:Drivers/STM32G0xx_HAL_Driver/Src/stm32g0xx_hal_rcc_ex.c ****           }
1080:Drivers/STM32G0xx_HAL_Driver/Src/stm32g0xx_hal_rcc_ex.c ****         }
1081:Drivers/STM32G0xx_HAL_Driver/Src/stm32g0xx_hal_rcc_ex.c ****         else if (srcclk == RCC_TIM1CLKSOURCE_PCLK1) /* PCLK1 ? */
1082:Drivers/STM32G0xx_HAL_Driver/Src/stm32g0xx_hal_rcc_ex.c ****         {
1083:Drivers/STM32G0xx_HAL_Driver/Src/stm32g0xx_hal_rcc_ex.c ****           frequency = HAL_RCC_GetPCLK1Freq();
1084:Drivers/STM32G0xx_HAL_Driver/Src/stm32g0xx_hal_rcc_ex.c ****         }
1085:Drivers/STM32G0xx_HAL_Driver/Src/stm32g0xx_hal_rcc_ex.c ****         else /* No clock source */
1086:Drivers/STM32G0xx_HAL_Driver/Src/stm32g0xx_hal_rcc_ex.c ****         {
1087:Drivers/STM32G0xx_HAL_Driver/Src/stm32g0xx_hal_rcc_ex.c ****           /* Nothing to do as frequency already initialized to 0U */
1088:Drivers/STM32G0xx_HAL_Driver/Src/stm32g0xx_hal_rcc_ex.c ****         }
1089:Drivers/STM32G0xx_HAL_Driver/Src/stm32g0xx_hal_rcc_ex.c ****         break;
1090:Drivers/STM32G0xx_HAL_Driver/Src/stm32g0xx_hal_rcc_ex.c **** #endif /* RCC_CCIPR_TIM1SEL */
1091:Drivers/STM32G0xx_HAL_Driver/Src/stm32g0xx_hal_rcc_ex.c **** 
1092:Drivers/STM32G0xx_HAL_Driver/Src/stm32g0xx_hal_rcc_ex.c **** #if defined(RCC_CCIPR_TIM15SEL)
1093:Drivers/STM32G0xx_HAL_Driver/Src/stm32g0xx_hal_rcc_ex.c ****       case RCC_PERIPHCLK_TIM15:
1094:Drivers/STM32G0xx_HAL_Driver/Src/stm32g0xx_hal_rcc_ex.c **** 
1095:Drivers/STM32G0xx_HAL_Driver/Src/stm32g0xx_hal_rcc_ex.c ****         srcclk = READ_BIT(RCC->CCIPR, RCC_CCIPR_TIM15SEL);
1096:Drivers/STM32G0xx_HAL_Driver/Src/stm32g0xx_hal_rcc_ex.c **** 
1097:Drivers/STM32G0xx_HAL_Driver/Src/stm32g0xx_hal_rcc_ex.c ****         if (srcclk == RCC_TIM15CLKSOURCE_PLL) /* PLL ? */
1098:Drivers/STM32G0xx_HAL_Driver/Src/stm32g0xx_hal_rcc_ex.c ****         {
1099:Drivers/STM32G0xx_HAL_Driver/Src/stm32g0xx_hal_rcc_ex.c ****           if (__HAL_RCC_GET_PLLCLKOUT_CONFIG(RCC_PLLQCLK) != 0U)
1100:Drivers/STM32G0xx_HAL_Driver/Src/stm32g0xx_hal_rcc_ex.c ****           {
1101:Drivers/STM32G0xx_HAL_Driver/Src/stm32g0xx_hal_rcc_ex.c ****             /* f(PLLQ) = f(VCO input) * PLLN / PLLQ */
ARM GAS  C:\Users\Xusniyor\AppData\Local\Temp\ccusJTJw.s 			page 37


1102:Drivers/STM32G0xx_HAL_Driver/Src/stm32g0xx_hal_rcc_ex.c ****             plln = READ_BIT(RCC->PLLCFGR, RCC_PLLCFGR_PLLN) >> RCC_PLLCFGR_PLLN_Pos;
1103:Drivers/STM32G0xx_HAL_Driver/Src/stm32g0xx_hal_rcc_ex.c ****             frequency = (pllvco * plln) / ((READ_BIT(RCC->PLLCFGR, RCC_PLLCFGR_PLLQ) >> RCC_PLLCFGR
1104:Drivers/STM32G0xx_HAL_Driver/Src/stm32g0xx_hal_rcc_ex.c ****           }
1105:Drivers/STM32G0xx_HAL_Driver/Src/stm32g0xx_hal_rcc_ex.c ****         }
1106:Drivers/STM32G0xx_HAL_Driver/Src/stm32g0xx_hal_rcc_ex.c ****         else if (srcclk == RCC_TIM15CLKSOURCE_PCLK1) /* PCLK1 ? */
1107:Drivers/STM32G0xx_HAL_Driver/Src/stm32g0xx_hal_rcc_ex.c ****         {
1108:Drivers/STM32G0xx_HAL_Driver/Src/stm32g0xx_hal_rcc_ex.c ****           frequency = HAL_RCC_GetPCLK1Freq();
1109:Drivers/STM32G0xx_HAL_Driver/Src/stm32g0xx_hal_rcc_ex.c ****         }
1110:Drivers/STM32G0xx_HAL_Driver/Src/stm32g0xx_hal_rcc_ex.c ****         else /* No clock source */
1111:Drivers/STM32G0xx_HAL_Driver/Src/stm32g0xx_hal_rcc_ex.c ****         {
1112:Drivers/STM32G0xx_HAL_Driver/Src/stm32g0xx_hal_rcc_ex.c ****           /* Nothing to do as frequency already initialized to 0U */
1113:Drivers/STM32G0xx_HAL_Driver/Src/stm32g0xx_hal_rcc_ex.c ****         }
1114:Drivers/STM32G0xx_HAL_Driver/Src/stm32g0xx_hal_rcc_ex.c ****         break;
1115:Drivers/STM32G0xx_HAL_Driver/Src/stm32g0xx_hal_rcc_ex.c **** #endif /* RCC_CCIPR_TIM15SEL */
1116:Drivers/STM32G0xx_HAL_Driver/Src/stm32g0xx_hal_rcc_ex.c **** 
1117:Drivers/STM32G0xx_HAL_Driver/Src/stm32g0xx_hal_rcc_ex.c **** #if defined(RCC_CCIPR2_USBSEL)
1118:Drivers/STM32G0xx_HAL_Driver/Src/stm32g0xx_hal_rcc_ex.c ****       case RCC_PERIPHCLK_USB:
1119:Drivers/STM32G0xx_HAL_Driver/Src/stm32g0xx_hal_rcc_ex.c **** 
1120:Drivers/STM32G0xx_HAL_Driver/Src/stm32g0xx_hal_rcc_ex.c ****         srcclk = READ_BIT(RCC->CCIPR2, RCC_CCIPR2_USBSEL);
1121:Drivers/STM32G0xx_HAL_Driver/Src/stm32g0xx_hal_rcc_ex.c **** 
1122:Drivers/STM32G0xx_HAL_Driver/Src/stm32g0xx_hal_rcc_ex.c ****         if (srcclk == RCC_USBCLKSOURCE_PLL) /* PLL ? */
1123:Drivers/STM32G0xx_HAL_Driver/Src/stm32g0xx_hal_rcc_ex.c ****         {
1124:Drivers/STM32G0xx_HAL_Driver/Src/stm32g0xx_hal_rcc_ex.c ****           if (__HAL_RCC_GET_PLLCLKOUT_CONFIG(RCC_PLLQCLK) != 0U)
1125:Drivers/STM32G0xx_HAL_Driver/Src/stm32g0xx_hal_rcc_ex.c ****           {
1126:Drivers/STM32G0xx_HAL_Driver/Src/stm32g0xx_hal_rcc_ex.c ****             /* f(PLLQ) = f(VCO input) * PLLN / PLLQ */
1127:Drivers/STM32G0xx_HAL_Driver/Src/stm32g0xx_hal_rcc_ex.c ****             plln = READ_BIT(RCC->PLLCFGR, RCC_PLLCFGR_PLLN) >> RCC_PLLCFGR_PLLN_Pos;
1128:Drivers/STM32G0xx_HAL_Driver/Src/stm32g0xx_hal_rcc_ex.c ****             frequency = (pllvco * plln) / ((READ_BIT(RCC->PLLCFGR, RCC_PLLCFGR_PLLQ) >> RCC_PLLCFGR
1129:Drivers/STM32G0xx_HAL_Driver/Src/stm32g0xx_hal_rcc_ex.c ****           }
1130:Drivers/STM32G0xx_HAL_Driver/Src/stm32g0xx_hal_rcc_ex.c ****         }
1131:Drivers/STM32G0xx_HAL_Driver/Src/stm32g0xx_hal_rcc_ex.c **** #if defined(RCC_HSI48_SUPPORT)
1132:Drivers/STM32G0xx_HAL_Driver/Src/stm32g0xx_hal_rcc_ex.c ****         else if (srcclk == RCC_USBCLKSOURCE_HSI48) /* HSI48 ? */
1133:Drivers/STM32G0xx_HAL_Driver/Src/stm32g0xx_hal_rcc_ex.c ****         {
1134:Drivers/STM32G0xx_HAL_Driver/Src/stm32g0xx_hal_rcc_ex.c ****           if ((HAL_IS_BIT_SET(RCC->CR, RCC_CR_HSI48RDY)) && (srcclk == RCC_USBCLKSOURCE_HSI48))
1135:Drivers/STM32G0xx_HAL_Driver/Src/stm32g0xx_hal_rcc_ex.c ****           {
1136:Drivers/STM32G0xx_HAL_Driver/Src/stm32g0xx_hal_rcc_ex.c ****             frequency = HSI48_VALUE;
1137:Drivers/STM32G0xx_HAL_Driver/Src/stm32g0xx_hal_rcc_ex.c ****           }
1138:Drivers/STM32G0xx_HAL_Driver/Src/stm32g0xx_hal_rcc_ex.c ****         }
1139:Drivers/STM32G0xx_HAL_Driver/Src/stm32g0xx_hal_rcc_ex.c **** #endif /* RCC_HSI48_SUPPORT */
1140:Drivers/STM32G0xx_HAL_Driver/Src/stm32g0xx_hal_rcc_ex.c ****         else if (srcclk == RCC_USBCLKSOURCE_HSE)
1141:Drivers/STM32G0xx_HAL_Driver/Src/stm32g0xx_hal_rcc_ex.c ****         {
1142:Drivers/STM32G0xx_HAL_Driver/Src/stm32g0xx_hal_rcc_ex.c ****           if ((HAL_IS_BIT_SET(RCC->CR, RCC_CR_HSERDY)) && (srcclk == RCC_USBCLKSOURCE_HSE))
1143:Drivers/STM32G0xx_HAL_Driver/Src/stm32g0xx_hal_rcc_ex.c ****           {
1144:Drivers/STM32G0xx_HAL_Driver/Src/stm32g0xx_hal_rcc_ex.c ****             frequency = HSE_VALUE;
1145:Drivers/STM32G0xx_HAL_Driver/Src/stm32g0xx_hal_rcc_ex.c ****           }
1146:Drivers/STM32G0xx_HAL_Driver/Src/stm32g0xx_hal_rcc_ex.c ****         }
1147:Drivers/STM32G0xx_HAL_Driver/Src/stm32g0xx_hal_rcc_ex.c ****         else /* No clock source */
1148:Drivers/STM32G0xx_HAL_Driver/Src/stm32g0xx_hal_rcc_ex.c ****         {
1149:Drivers/STM32G0xx_HAL_Driver/Src/stm32g0xx_hal_rcc_ex.c ****           /* Nothing to do as frequency already initialized to 0U */
1150:Drivers/STM32G0xx_HAL_Driver/Src/stm32g0xx_hal_rcc_ex.c ****         }
1151:Drivers/STM32G0xx_HAL_Driver/Src/stm32g0xx_hal_rcc_ex.c ****         break;
1152:Drivers/STM32G0xx_HAL_Driver/Src/stm32g0xx_hal_rcc_ex.c **** #endif /* RCC_CCIPR2_USBSEL */
1153:Drivers/STM32G0xx_HAL_Driver/Src/stm32g0xx_hal_rcc_ex.c **** 
1154:Drivers/STM32G0xx_HAL_Driver/Src/stm32g0xx_hal_rcc_ex.c **** #if defined(RCC_CCIPR2_FDCANSEL)
1155:Drivers/STM32G0xx_HAL_Driver/Src/stm32g0xx_hal_rcc_ex.c ****       case RCC_PERIPHCLK_FDCAN:
1156:Drivers/STM32G0xx_HAL_Driver/Src/stm32g0xx_hal_rcc_ex.c **** 
1157:Drivers/STM32G0xx_HAL_Driver/Src/stm32g0xx_hal_rcc_ex.c ****         srcclk = READ_BIT(RCC->CCIPR2, RCC_CCIPR2_FDCANSEL);
1158:Drivers/STM32G0xx_HAL_Driver/Src/stm32g0xx_hal_rcc_ex.c **** 
ARM GAS  C:\Users\Xusniyor\AppData\Local\Temp\ccusJTJw.s 			page 38


1159:Drivers/STM32G0xx_HAL_Driver/Src/stm32g0xx_hal_rcc_ex.c ****         if (srcclk == RCC_FDCANCLKSOURCE_PLL) /* PLL ? */
1160:Drivers/STM32G0xx_HAL_Driver/Src/stm32g0xx_hal_rcc_ex.c ****         {
1161:Drivers/STM32G0xx_HAL_Driver/Src/stm32g0xx_hal_rcc_ex.c ****           if (__HAL_RCC_GET_PLLCLKOUT_CONFIG(RCC_PLLQCLK) != 0U)
1162:Drivers/STM32G0xx_HAL_Driver/Src/stm32g0xx_hal_rcc_ex.c ****           {
1163:Drivers/STM32G0xx_HAL_Driver/Src/stm32g0xx_hal_rcc_ex.c ****             /* f(PLLQ) = f(VCO input) * PLLN / PLLQ */
1164:Drivers/STM32G0xx_HAL_Driver/Src/stm32g0xx_hal_rcc_ex.c ****             plln = READ_BIT(RCC->PLLCFGR, RCC_PLLCFGR_PLLN) >> RCC_PLLCFGR_PLLN_Pos;
1165:Drivers/STM32G0xx_HAL_Driver/Src/stm32g0xx_hal_rcc_ex.c ****             frequency = (pllvco * plln) / ((READ_BIT(RCC->PLLCFGR, RCC_PLLCFGR_PLLQ) >> RCC_PLLCFGR
1166:Drivers/STM32G0xx_HAL_Driver/Src/stm32g0xx_hal_rcc_ex.c ****           }
1167:Drivers/STM32G0xx_HAL_Driver/Src/stm32g0xx_hal_rcc_ex.c ****         }
1168:Drivers/STM32G0xx_HAL_Driver/Src/stm32g0xx_hal_rcc_ex.c ****         else if (srcclk == RCC_FDCANCLKSOURCE_PCLK1) /* PCLK1 ? */
1169:Drivers/STM32G0xx_HAL_Driver/Src/stm32g0xx_hal_rcc_ex.c ****         {
1170:Drivers/STM32G0xx_HAL_Driver/Src/stm32g0xx_hal_rcc_ex.c ****           frequency = HAL_RCC_GetPCLK1Freq();
1171:Drivers/STM32G0xx_HAL_Driver/Src/stm32g0xx_hal_rcc_ex.c ****         }
1172:Drivers/STM32G0xx_HAL_Driver/Src/stm32g0xx_hal_rcc_ex.c ****         else if ((HAL_IS_BIT_SET(RCC->CR, RCC_CR_HSERDY)) && (srcclk == RCC_FDCANCLKSOURCE_HSE))
1173:Drivers/STM32G0xx_HAL_Driver/Src/stm32g0xx_hal_rcc_ex.c ****         {
1174:Drivers/STM32G0xx_HAL_Driver/Src/stm32g0xx_hal_rcc_ex.c ****           frequency = HSE_VALUE;
1175:Drivers/STM32G0xx_HAL_Driver/Src/stm32g0xx_hal_rcc_ex.c ****         }
1176:Drivers/STM32G0xx_HAL_Driver/Src/stm32g0xx_hal_rcc_ex.c ****         else /* No clock source */
1177:Drivers/STM32G0xx_HAL_Driver/Src/stm32g0xx_hal_rcc_ex.c ****         {
1178:Drivers/STM32G0xx_HAL_Driver/Src/stm32g0xx_hal_rcc_ex.c ****           /* Nothing to do as frequency already initialized to 0U */
1179:Drivers/STM32G0xx_HAL_Driver/Src/stm32g0xx_hal_rcc_ex.c ****         }
1180:Drivers/STM32G0xx_HAL_Driver/Src/stm32g0xx_hal_rcc_ex.c ****         break;
1181:Drivers/STM32G0xx_HAL_Driver/Src/stm32g0xx_hal_rcc_ex.c **** #endif /* RCC_CCIPR2_FDCANSEL */
1182:Drivers/STM32G0xx_HAL_Driver/Src/stm32g0xx_hal_rcc_ex.c **** 
1183:Drivers/STM32G0xx_HAL_Driver/Src/stm32g0xx_hal_rcc_ex.c ****       default:
1184:Drivers/STM32G0xx_HAL_Driver/Src/stm32g0xx_hal_rcc_ex.c ****         break;
1185:Drivers/STM32G0xx_HAL_Driver/Src/stm32g0xx_hal_rcc_ex.c ****     }
1186:Drivers/STM32G0xx_HAL_Driver/Src/stm32g0xx_hal_rcc_ex.c ****   }
1187:Drivers/STM32G0xx_HAL_Driver/Src/stm32g0xx_hal_rcc_ex.c **** 
1188:Drivers/STM32G0xx_HAL_Driver/Src/stm32g0xx_hal_rcc_ex.c ****   return (frequency);
1189:Drivers/STM32G0xx_HAL_Driver/Src/stm32g0xx_hal_rcc_ex.c **** }
 894              		.loc 1 1189 1 view .LVU243
 895              		@ sp needed
 896              	.LVL51:
 897              		.loc 1 1189 1 view .LVU244
 898 0154 10BD     		pop	{r4, pc}
 899              	.LVL52:
 900              	.L41:
 672:Drivers/STM32G0xx_HAL_Driver/Src/stm32g0xx_hal_rcc_ex.c ****     {
 901              		.loc 1 672 5 view .LVU245
 902 0156 8023     		movs	r3, #128
 903 0158 DB01     		lsls	r3, r3, #7
 904 015a 9C42     		cmp	r4, r3
 905 015c 69D0     		beq	.L47
 906 015e 8023     		movs	r3, #128
 907 0160 9B03     		lsls	r3, r3, #14
 908 0162 9C42     		cmp	r4, r3
 909 0164 1AD1     		bne	.L97
1070:Drivers/STM32G0xx_HAL_Driver/Src/stm32g0xx_hal_rcc_ex.c **** 
 910              		.loc 1 1070 9 is_stmt 1 view .LVU246
1070:Drivers/STM32G0xx_HAL_Driver/Src/stm32g0xx_hal_rcc_ex.c **** 
 911              		.loc 1 1070 18 is_stmt 0 view .LVU247
 912 0166 674B     		ldr	r3, .L108
 913 0168 5B6D     		ldr	r3, [r3, #84]
 914              	.LVL53:
1072:Drivers/STM32G0xx_HAL_Driver/Src/stm32g0xx_hal_rcc_ex.c ****         {
 915              		.loc 1 1072 9 is_stmt 1 view .LVU248
ARM GAS  C:\Users\Xusniyor\AppData\Local\Temp\ccusJTJw.s 			page 39


1072:Drivers/STM32G0xx_HAL_Driver/Src/stm32g0xx_hal_rcc_ex.c ****         {
 916              		.loc 1 1072 12 is_stmt 0 view .LVU249
 917 016a 5B02     		lsls	r3, r3, #9
 918 016c 00D4     		bmi	.LCB858
 919 016e F8E0     		b	.L68	@long jump
 920              	.LCB858:
 921              	.LVL54:
1074:Drivers/STM32G0xx_HAL_Driver/Src/stm32g0xx_hal_rcc_ex.c ****           {
 922              		.loc 1 1074 11 is_stmt 1 view .LVU250
1074:Drivers/STM32G0xx_HAL_Driver/Src/stm32g0xx_hal_rcc_ex.c ****           {
 923              		.loc 1 1074 15 is_stmt 0 view .LVU251
 924 0170 644B     		ldr	r3, .L108
 925 0172 D968     		ldr	r1, [r3, #12]
 926 0174 8023     		movs	r3, #128
 927 0176 5B04     		lsls	r3, r3, #17
 928 0178 0800     		movs	r0, r1
 929              	.LVL55:
1074:Drivers/STM32G0xx_HAL_Driver/Src/stm32g0xx_hal_rcc_ex.c ****           {
 930              		.loc 1 1074 15 view .LVU252
 931 017a 1840     		ands	r0, r3
1074:Drivers/STM32G0xx_HAL_Driver/Src/stm32g0xx_hal_rcc_ex.c ****           {
 932              		.loc 1 1074 14 view .LVU253
 933 017c 1942     		tst	r1, r3
 934 017e E9D0     		beq	.L34
1077:Drivers/STM32G0xx_HAL_Driver/Src/stm32g0xx_hal_rcc_ex.c ****             frequency = (pllvco * plln) / ((READ_BIT(RCC->PLLCFGR, RCC_PLLCFGR_PLLQ) >> RCC_PLLCFGR
 935              		.loc 1 1077 13 is_stmt 1 view .LVU254
1077:Drivers/STM32G0xx_HAL_Driver/Src/stm32g0xx_hal_rcc_ex.c ****             frequency = (pllvco * plln) / ((READ_BIT(RCC->PLLCFGR, RCC_PLLCFGR_PLLQ) >> RCC_PLLCFGR
 936              		.loc 1 1077 20 is_stmt 0 view .LVU255
 937 0180 6049     		ldr	r1, .L108
 938 0182 CB68     		ldr	r3, [r1, #12]
1077:Drivers/STM32G0xx_HAL_Driver/Src/stm32g0xx_hal_rcc_ex.c ****             frequency = (pllvco * plln) / ((READ_BIT(RCC->PLLCFGR, RCC_PLLCFGR_PLLQ) >> RCC_PLLCFGR
 939              		.loc 1 1077 61 view .LVU256
 940 0184 1B0A     		lsrs	r3, r3, #8
1077:Drivers/STM32G0xx_HAL_Driver/Src/stm32g0xx_hal_rcc_ex.c ****             frequency = (pllvco * plln) / ((READ_BIT(RCC->PLLCFGR, RCC_PLLCFGR_PLLQ) >> RCC_PLLCFGR
 941              		.loc 1 1077 18 view .LVU257
 942 0186 7F20     		movs	r0, #127
 943 0188 1840     		ands	r0, r3
 944              	.LVL56:
1078:Drivers/STM32G0xx_HAL_Driver/Src/stm32g0xx_hal_rcc_ex.c ****           }
 945              		.loc 1 1078 13 is_stmt 1 view .LVU258
1078:Drivers/STM32G0xx_HAL_Driver/Src/stm32g0xx_hal_rcc_ex.c ****           }
 946              		.loc 1 1078 33 is_stmt 0 view .LVU259
 947 018a 5043     		muls	r0, r2
 948              	.LVL57:
1078:Drivers/STM32G0xx_HAL_Driver/Src/stm32g0xx_hal_rcc_ex.c ****           }
 949              		.loc 1 1078 45 view .LVU260
 950 018c CB68     		ldr	r3, [r1, #12]
 951              	.LVL58:
1078:Drivers/STM32G0xx_HAL_Driver/Src/stm32g0xx_hal_rcc_ex.c ****           }
 952              		.loc 1 1078 86 view .LVU261
 953 018e 5B0E     		lsrs	r3, r3, #25
 954 0190 0721     		movs	r1, #7
 955 0192 1940     		ands	r1, r3
1078:Drivers/STM32G0xx_HAL_Driver/Src/stm32g0xx_hal_rcc_ex.c ****           }
 956              		.loc 1 1078 111 view .LVU262
 957 0194 0131     		adds	r1, r1, #1
1078:Drivers/STM32G0xx_HAL_Driver/Src/stm32g0xx_hal_rcc_ex.c ****           }
ARM GAS  C:\Users\Xusniyor\AppData\Local\Temp\ccusJTJw.s 			page 40


 958              		.loc 1 1078 23 view .LVU263
 959 0196 FFF7FEFF 		bl	__aeabi_uidiv
 960              	.LVL59:
1078:Drivers/STM32G0xx_HAL_Driver/Src/stm32g0xx_hal_rcc_ex.c ****           }
 961              		.loc 1 1078 23 view .LVU264
 962 019a DBE7     		b	.L34
 963              	.LVL60:
 964              	.L97:
 672:Drivers/STM32G0xx_HAL_Driver/Src/stm32g0xx_hal_rcc_ex.c ****     {
 965              		.loc 1 672 5 view .LVU265
 966 019c 8023     		movs	r3, #128
 967 019e 1B01     		lsls	r3, r3, #4
 968 01a0 9C42     		cmp	r4, r3
 969 01a2 1CD1     		bne	.L98
 943:Drivers/STM32G0xx_HAL_Driver/Src/stm32g0xx_hal_rcc_ex.c **** 
 970              		.loc 1 943 9 is_stmt 1 view .LVU266
 943:Drivers/STM32G0xx_HAL_Driver/Src/stm32g0xx_hal_rcc_ex.c **** 
 971              		.loc 1 943 18 is_stmt 0 view .LVU267
 972 01a4 574B     		ldr	r3, .L108
 973 01a6 5B6D     		ldr	r3, [r3, #84]
 943:Drivers/STM32G0xx_HAL_Driver/Src/stm32g0xx_hal_rcc_ex.c **** 
 974              		.loc 1 943 16 view .LVU268
 975 01a8 C021     		movs	r1, #192
 976 01aa 0902     		lsls	r1, r1, #8
 977 01ac 0B40     		ands	r3, r1
 978              	.LVL61:
 945:Drivers/STM32G0xx_HAL_Driver/Src/stm32g0xx_hal_rcc_ex.c ****         {
 979              		.loc 1 945 9 is_stmt 1 view .LVU269
 945:Drivers/STM32G0xx_HAL_Driver/Src/stm32g0xx_hal_rcc_ex.c ****         {
 980              		.loc 1 945 12 is_stmt 0 view .LVU270
 981 01ae 8021     		movs	r1, #128
 982 01b0 C901     		lsls	r1, r1, #7
 983 01b2 8B42     		cmp	r3, r1
 984 01b4 00D1     		bne	.LCB912
 985 01b6 88E0     		b	.L99	@long jump
 986              	.LCB912:
 954:Drivers/STM32G0xx_HAL_Driver/Src/stm32g0xx_hal_rcc_ex.c ****         {
 987              		.loc 1 954 14 is_stmt 1 view .LVU271
 954:Drivers/STM32G0xx_HAL_Driver/Src/stm32g0xx_hal_rcc_ex.c ****         {
 988              		.loc 1 954 17 is_stmt 0 view .LVU272
 989 01b8 002B     		cmp	r3, #0
 990 01ba 00D1     		bne	.LCB915
 991 01bc 9CE0     		b	.L100	@long jump
 992              	.LCB915:
 958:Drivers/STM32G0xx_HAL_Driver/Src/stm32g0xx_hal_rcc_ex.c ****         {
 993              		.loc 1 958 14 is_stmt 1 view .LVU273
 958:Drivers/STM32G0xx_HAL_Driver/Src/stm32g0xx_hal_rcc_ex.c ****         {
 994              		.loc 1 958 19 is_stmt 0 view .LVU274
 995 01be 514A     		ldr	r2, .L108
 996 01c0 1268     		ldr	r2, [r2]
 958:Drivers/STM32G0xx_HAL_Driver/Src/stm32g0xx_hal_rcc_ex.c ****         {
 997              		.loc 1 958 17 view .LVU275
 998 01c2 5205     		lsls	r2, r2, #21
 999 01c4 04D5     		bpl	.L61
 958:Drivers/STM32G0xx_HAL_Driver/Src/stm32g0xx_hal_rcc_ex.c ****         {
 1000              		.loc 1 958 59 discriminator 1 view .LVU276
 1001 01c6 8022     		movs	r2, #128
ARM GAS  C:\Users\Xusniyor\AppData\Local\Temp\ccusJTJw.s 			page 41


 1002 01c8 1202     		lsls	r2, r2, #8
 1003 01ca 9342     		cmp	r3, r2
 1004 01cc 00D1     		bne	.LCB926
 1005 01ce E1E0     		b	.L81	@long jump
 1006              	.LCB926:
 1007              	.L61:
 962:Drivers/STM32G0xx_HAL_Driver/Src/stm32g0xx_hal_rcc_ex.c ****         {
 1008              		.loc 1 962 14 is_stmt 1 view .LVU277
 962:Drivers/STM32G0xx_HAL_Driver/Src/stm32g0xx_hal_rcc_ex.c ****         {
 1009              		.loc 1 962 17 is_stmt 0 view .LVU278
 1010 01d0 C022     		movs	r2, #192
 1011 01d2 1202     		lsls	r2, r2, #8
 1012 01d4 9342     		cmp	r3, r2
 1013 01d6 00D1     		bne	.LCB932
 1014 01d8 DEE0     		b	.L82	@long jump
 1015              	.LCB932:
 614:Drivers/STM32G0xx_HAL_Driver/Src/stm32g0xx_hal_rcc_ex.c ****   uint32_t srcclk;
 1016              		.loc 1 614 12 view .LVU279
 1017 01da 0020     		movs	r0, #0
 1018              	.LVL62:
 614:Drivers/STM32G0xx_HAL_Driver/Src/stm32g0xx_hal_rcc_ex.c ****   uint32_t srcclk;
 1019              		.loc 1 614 12 view .LVU280
 1020 01dc BAE7     		b	.L34
 1021              	.LVL63:
 1022              	.L98:
 672:Drivers/STM32G0xx_HAL_Driver/Src/stm32g0xx_hal_rcc_ex.c ****     {
 1023              		.loc 1 672 5 view .LVU281
 1024 01de 0020     		movs	r0, #0
 1025              	.LVL64:
 672:Drivers/STM32G0xx_HAL_Driver/Src/stm32g0xx_hal_rcc_ex.c ****     {
 1026              		.loc 1 672 5 view .LVU282
 1027 01e0 B8E7     		b	.L34
 1028              	.LVL65:
 1029              	.L44:
 704:Drivers/STM32G0xx_HAL_Driver/Src/stm32g0xx_hal_rcc_ex.c **** 
 1030              		.loc 1 704 9 is_stmt 1 view .LVU283
 704:Drivers/STM32G0xx_HAL_Driver/Src/stm32g0xx_hal_rcc_ex.c **** 
 1031              		.loc 1 704 18 is_stmt 0 view .LVU284
 1032 01e2 484B     		ldr	r3, .L108
 1033 01e4 5B6D     		ldr	r3, [r3, #84]
 704:Drivers/STM32G0xx_HAL_Driver/Src/stm32g0xx_hal_rcc_ex.c **** 
 1034              		.loc 1 704 16 view .LVU285
 1035 01e6 0322     		movs	r2, #3
 1036 01e8 1100     		movs	r1, r2
 1037 01ea 1940     		ands	r1, r3
 1038              	.LVL66:
 706:Drivers/STM32G0xx_HAL_Driver/Src/stm32g0xx_hal_rcc_ex.c ****         {
 1039              		.loc 1 706 9 is_stmt 1 view .LVU286
 706:Drivers/STM32G0xx_HAL_Driver/Src/stm32g0xx_hal_rcc_ex.c ****         {
 1040              		.loc 1 706 12 is_stmt 0 view .LVU287
 1041 01ec 1A42     		tst	r2, r3
 1042 01ee 14D0     		beq	.L101
 710:Drivers/STM32G0xx_HAL_Driver/Src/stm32g0xx_hal_rcc_ex.c ****         {
 1043              		.loc 1 710 14 is_stmt 1 view .LVU288
 710:Drivers/STM32G0xx_HAL_Driver/Src/stm32g0xx_hal_rcc_ex.c ****         {
 1044              		.loc 1 710 17 is_stmt 0 view .LVU289
 1045 01f0 0129     		cmp	r1, #1
ARM GAS  C:\Users\Xusniyor\AppData\Local\Temp\ccusJTJw.s 			page 42


 1046 01f2 15D0     		beq	.L102
 714:Drivers/STM32G0xx_HAL_Driver/Src/stm32g0xx_hal_rcc_ex.c ****         {
 1047              		.loc 1 714 14 is_stmt 1 view .LVU290
 714:Drivers/STM32G0xx_HAL_Driver/Src/stm32g0xx_hal_rcc_ex.c ****         {
 1048              		.loc 1 714 19 is_stmt 0 view .LVU291
 1049 01f4 434B     		ldr	r3, .L108
 1050 01f6 1B68     		ldr	r3, [r3]
 714:Drivers/STM32G0xx_HAL_Driver/Src/stm32g0xx_hal_rcc_ex.c ****         {
 1051              		.loc 1 714 17 view .LVU292
 1052 01f8 5B05     		lsls	r3, r3, #21
 1053 01fa 02D5     		bpl	.L52
 714:Drivers/STM32G0xx_HAL_Driver/Src/stm32g0xx_hal_rcc_ex.c ****         {
 1054              		.loc 1 714 59 discriminator 1 view .LVU293
 1055 01fc 0229     		cmp	r1, #2
 1056 01fe 00D1     		bne	.LCB969
 1057 0200 BAE0     		b	.L74	@long jump
 1058              	.LCB969:
 1059              	.L52:
 718:Drivers/STM32G0xx_HAL_Driver/Src/stm32g0xx_hal_rcc_ex.c ****         {
 1060              		.loc 1 718 14 is_stmt 1 view .LVU294
 718:Drivers/STM32G0xx_HAL_Driver/Src/stm32g0xx_hal_rcc_ex.c ****         {
 1061              		.loc 1 718 19 is_stmt 0 view .LVU295
 1062 0202 404B     		ldr	r3, .L108
 1063 0204 DB6D     		ldr	r3, [r3, #92]
 1064 0206 0222     		movs	r2, #2
 1065 0208 1000     		movs	r0, r2
 1066              	.LVL67:
 718:Drivers/STM32G0xx_HAL_Driver/Src/stm32g0xx_hal_rcc_ex.c ****         {
 1067              		.loc 1 718 19 view .LVU296
 1068 020a 1840     		ands	r0, r3
 718:Drivers/STM32G0xx_HAL_Driver/Src/stm32g0xx_hal_rcc_ex.c ****         {
 1069              		.loc 1 718 17 view .LVU297
 1070 020c 1A42     		tst	r2, r3
 1071 020e A1D0     		beq	.L34
 718:Drivers/STM32G0xx_HAL_Driver/Src/stm32g0xx_hal_rcc_ex.c ****         {
 1072              		.loc 1 718 63 discriminator 1 view .LVU298
 1073 0210 0329     		cmp	r1, #3
 1074 0212 00D1     		bne	.LCB981
 1075 0214 B2E0     		b	.L75	@long jump
 1076              	.LCB981:
 614:Drivers/STM32G0xx_HAL_Driver/Src/stm32g0xx_hal_rcc_ex.c ****   uint32_t srcclk;
 1077              		.loc 1 614 12 view .LVU299
 1078 0216 0020     		movs	r0, #0
 1079 0218 9CE7     		b	.L34
 1080              	.LVL68:
 1081              	.L101:
 708:Drivers/STM32G0xx_HAL_Driver/Src/stm32g0xx_hal_rcc_ex.c ****         }
 1082              		.loc 1 708 11 is_stmt 1 view .LVU300
 708:Drivers/STM32G0xx_HAL_Driver/Src/stm32g0xx_hal_rcc_ex.c ****         }
 1083              		.loc 1 708 23 is_stmt 0 view .LVU301
 1084 021a FFF7FEFF 		bl	HAL_RCC_GetPCLK1Freq
 1085              	.LVL69:
 708:Drivers/STM32G0xx_HAL_Driver/Src/stm32g0xx_hal_rcc_ex.c ****         }
 1086              		.loc 1 708 23 view .LVU302
 1087 021e 99E7     		b	.L34
 1088              	.LVL70:
 1089              	.L102:
ARM GAS  C:\Users\Xusniyor\AppData\Local\Temp\ccusJTJw.s 			page 43


 712:Drivers/STM32G0xx_HAL_Driver/Src/stm32g0xx_hal_rcc_ex.c ****         }
 1090              		.loc 1 712 11 is_stmt 1 view .LVU303
 712:Drivers/STM32G0xx_HAL_Driver/Src/stm32g0xx_hal_rcc_ex.c ****         }
 1091              		.loc 1 712 23 is_stmt 0 view .LVU304
 1092 0220 FFF7FEFF 		bl	HAL_RCC_GetSysClockFreq
 1093              	.LVL71:
 712:Drivers/STM32G0xx_HAL_Driver/Src/stm32g0xx_hal_rcc_ex.c ****         }
 1094              		.loc 1 712 23 view .LVU305
 1095 0224 96E7     		b	.L34
 1096              	.LVL72:
 1097              	.L95:
 814:Drivers/STM32G0xx_HAL_Driver/Src/stm32g0xx_hal_rcc_ex.c ****         }
 1098              		.loc 1 814 11 is_stmt 1 view .LVU306
 814:Drivers/STM32G0xx_HAL_Driver/Src/stm32g0xx_hal_rcc_ex.c ****         }
 1099              		.loc 1 814 23 is_stmt 0 view .LVU307
 1100 0226 FFF7FEFF 		bl	HAL_RCC_GetPCLK1Freq
 1101              	.LVL73:
 814:Drivers/STM32G0xx_HAL_Driver/Src/stm32g0xx_hal_rcc_ex.c ****         }
 1102              		.loc 1 814 23 view .LVU308
 1103 022a 93E7     		b	.L34
 1104              	.LVL74:
 1105              	.L96:
 818:Drivers/STM32G0xx_HAL_Driver/Src/stm32g0xx_hal_rcc_ex.c ****         }
 1106              		.loc 1 818 11 is_stmt 1 view .LVU309
 818:Drivers/STM32G0xx_HAL_Driver/Src/stm32g0xx_hal_rcc_ex.c ****         }
 1107              		.loc 1 818 23 is_stmt 0 view .LVU310
 1108 022c FFF7FEFF 		bl	HAL_RCC_GetSysClockFreq
 1109              	.LVL75:
 818:Drivers/STM32G0xx_HAL_Driver/Src/stm32g0xx_hal_rcc_ex.c ****         }
 1110              		.loc 1 818 23 view .LVU311
 1111 0230 90E7     		b	.L34
 1112              	.LVL76:
 1113              	.L47:
 867:Drivers/STM32G0xx_HAL_Driver/Src/stm32g0xx_hal_rcc_ex.c **** 
 1114              		.loc 1 867 9 is_stmt 1 view .LVU312
 867:Drivers/STM32G0xx_HAL_Driver/Src/stm32g0xx_hal_rcc_ex.c **** 
 1115              		.loc 1 867 18 is_stmt 0 view .LVU313
 1116 0232 344B     		ldr	r3, .L108
 1117 0234 5B6D     		ldr	r3, [r3, #84]
 867:Drivers/STM32G0xx_HAL_Driver/Src/stm32g0xx_hal_rcc_ex.c **** 
 1118              		.loc 1 867 16 view .LVU314
 1119 0236 9B0F     		lsrs	r3, r3, #30
 1120 0238 9907     		lsls	r1, r3, #30
 1121              	.LVL77:
 869:Drivers/STM32G0xx_HAL_Driver/Src/stm32g0xx_hal_rcc_ex.c ****         {
 1122              		.loc 1 869 9 is_stmt 1 view .LVU315
 869:Drivers/STM32G0xx_HAL_Driver/Src/stm32g0xx_hal_rcc_ex.c ****         {
 1123              		.loc 1 869 12 is_stmt 0 view .LVU316
 1124 023a 002B     		cmp	r3, #0
 1125 023c 0AD0     		beq	.L103
 873:Drivers/STM32G0xx_HAL_Driver/Src/stm32g0xx_hal_rcc_ex.c ****         {
 1126              		.loc 1 873 14 is_stmt 1 view .LVU317
 873:Drivers/STM32G0xx_HAL_Driver/Src/stm32g0xx_hal_rcc_ex.c ****         {
 1127              		.loc 1 873 17 is_stmt 0 view .LVU318
 1128 023e 8023     		movs	r3, #128
 1129 0240 1B06     		lsls	r3, r3, #24
 1130 0242 9942     		cmp	r1, r3
ARM GAS  C:\Users\Xusniyor\AppData\Local\Temp\ccusJTJw.s 			page 44


 1131 0244 00D1     		bne	.LCB1049
 1132 0246 A1E0     		b	.L78	@long jump
 1133              	.LCB1049:
 877:Drivers/STM32G0xx_HAL_Driver/Src/stm32g0xx_hal_rcc_ex.c ****         {
 1134              		.loc 1 877 14 is_stmt 1 view .LVU319
 877:Drivers/STM32G0xx_HAL_Driver/Src/stm32g0xx_hal_rcc_ex.c ****         {
 1135              		.loc 1 877 17 is_stmt 0 view .LVU320
 1136 0248 8023     		movs	r3, #128
 1137 024a DB05     		lsls	r3, r3, #23
 1138 024c 9942     		cmp	r1, r3
 1139 024e 04D0     		beq	.L104
 614:Drivers/STM32G0xx_HAL_Driver/Src/stm32g0xx_hal_rcc_ex.c ****   uint32_t srcclk;
 1140              		.loc 1 614 12 view .LVU321
 1141 0250 0020     		movs	r0, #0
 1142              	.LVL78:
 614:Drivers/STM32G0xx_HAL_Driver/Src/stm32g0xx_hal_rcc_ex.c ****   uint32_t srcclk;
 1143              		.loc 1 614 12 view .LVU322
 1144 0252 7FE7     		b	.L34
 1145              	.LVL79:
 1146              	.L103:
 871:Drivers/STM32G0xx_HAL_Driver/Src/stm32g0xx_hal_rcc_ex.c ****         }
 1147              		.loc 1 871 11 is_stmt 1 view .LVU323
 871:Drivers/STM32G0xx_HAL_Driver/Src/stm32g0xx_hal_rcc_ex.c ****         }
 1148              		.loc 1 871 23 is_stmt 0 view .LVU324
 1149 0254 FFF7FEFF 		bl	HAL_RCC_GetSysClockFreq
 1150              	.LVL80:
 871:Drivers/STM32G0xx_HAL_Driver/Src/stm32g0xx_hal_rcc_ex.c ****         }
 1151              		.loc 1 871 23 view .LVU325
 1152 0258 7CE7     		b	.L34
 1153              	.LVL81:
 1154              	.L104:
 879:Drivers/STM32G0xx_HAL_Driver/Src/stm32g0xx_hal_rcc_ex.c ****           {
 1155              		.loc 1 879 11 is_stmt 1 view .LVU326
 879:Drivers/STM32G0xx_HAL_Driver/Src/stm32g0xx_hal_rcc_ex.c ****           {
 1156              		.loc 1 879 15 is_stmt 0 view .LVU327
 1157 025a 2A4B     		ldr	r3, .L108
 1158 025c D968     		ldr	r1, [r3, #12]
 1159              	.LVL82:
 879:Drivers/STM32G0xx_HAL_Driver/Src/stm32g0xx_hal_rcc_ex.c ****           {
 1160              		.loc 1 879 15 view .LVU328
 1161 025e 8023     		movs	r3, #128
 1162 0260 5B02     		lsls	r3, r3, #9
 1163 0262 0800     		movs	r0, r1
 1164              	.LVL83:
 879:Drivers/STM32G0xx_HAL_Driver/Src/stm32g0xx_hal_rcc_ex.c ****           {
 1165              		.loc 1 879 15 view .LVU329
 1166 0264 1840     		ands	r0, r3
 879:Drivers/STM32G0xx_HAL_Driver/Src/stm32g0xx_hal_rcc_ex.c ****           {
 1167              		.loc 1 879 14 view .LVU330
 1168 0266 1942     		tst	r1, r3
 1169 0268 00D1     		bne	.LCB1084
 1170 026a 73E7     		b	.L34	@long jump
 1171              	.LCB1084:
 882:Drivers/STM32G0xx_HAL_Driver/Src/stm32g0xx_hal_rcc_ex.c ****             frequency = (pllvco * plln) / ((READ_BIT(RCC->PLLCFGR, RCC_PLLCFGR_PLLP) >> RCC_PLLCFGR
 1172              		.loc 1 882 13 is_stmt 1 view .LVU331
 882:Drivers/STM32G0xx_HAL_Driver/Src/stm32g0xx_hal_rcc_ex.c ****             frequency = (pllvco * plln) / ((READ_BIT(RCC->PLLCFGR, RCC_PLLCFGR_PLLP) >> RCC_PLLCFGR
 1173              		.loc 1 882 20 is_stmt 0 view .LVU332
ARM GAS  C:\Users\Xusniyor\AppData\Local\Temp\ccusJTJw.s 			page 45


 1174 026c 2549     		ldr	r1, .L108
 1175 026e CB68     		ldr	r3, [r1, #12]
 882:Drivers/STM32G0xx_HAL_Driver/Src/stm32g0xx_hal_rcc_ex.c ****             frequency = (pllvco * plln) / ((READ_BIT(RCC->PLLCFGR, RCC_PLLCFGR_PLLP) >> RCC_PLLCFGR
 1176              		.loc 1 882 61 view .LVU333
 1177 0270 1B0A     		lsrs	r3, r3, #8
 882:Drivers/STM32G0xx_HAL_Driver/Src/stm32g0xx_hal_rcc_ex.c ****             frequency = (pllvco * plln) / ((READ_BIT(RCC->PLLCFGR, RCC_PLLCFGR_PLLP) >> RCC_PLLCFGR
 1178              		.loc 1 882 18 view .LVU334
 1179 0272 7F20     		movs	r0, #127
 1180 0274 1840     		ands	r0, r3
 1181              	.LVL84:
 883:Drivers/STM32G0xx_HAL_Driver/Src/stm32g0xx_hal_rcc_ex.c ****           }
 1182              		.loc 1 883 13 is_stmt 1 view .LVU335
 883:Drivers/STM32G0xx_HAL_Driver/Src/stm32g0xx_hal_rcc_ex.c ****           }
 1183              		.loc 1 883 33 is_stmt 0 view .LVU336
 1184 0276 5043     		muls	r0, r2
 1185              	.LVL85:
 883:Drivers/STM32G0xx_HAL_Driver/Src/stm32g0xx_hal_rcc_ex.c ****           }
 1186              		.loc 1 883 45 view .LVU337
 1187 0278 CB68     		ldr	r3, [r1, #12]
 1188              	.LVL86:
 883:Drivers/STM32G0xx_HAL_Driver/Src/stm32g0xx_hal_rcc_ex.c ****           }
 1189              		.loc 1 883 86 view .LVU338
 1190 027a 5B0C     		lsrs	r3, r3, #17
 1191 027c 1F21     		movs	r1, #31
 1192 027e 1940     		ands	r1, r3
 883:Drivers/STM32G0xx_HAL_Driver/Src/stm32g0xx_hal_rcc_ex.c ****           }
 1193              		.loc 1 883 111 view .LVU339
 1194 0280 0131     		adds	r1, r1, #1
 883:Drivers/STM32G0xx_HAL_Driver/Src/stm32g0xx_hal_rcc_ex.c ****           }
 1195              		.loc 1 883 23 view .LVU340
 1196 0282 FFF7FEFF 		bl	__aeabi_uidiv
 1197              	.LVL87:
 883:Drivers/STM32G0xx_HAL_Driver/Src/stm32g0xx_hal_rcc_ex.c ****           }
 1198              		.loc 1 883 23 view .LVU341
 1199 0286 65E7     		b	.L34
 1200              	.LVL88:
 1201              	.L42:
 895:Drivers/STM32G0xx_HAL_Driver/Src/stm32g0xx_hal_rcc_ex.c **** 
 1202              		.loc 1 895 9 is_stmt 1 view .LVU342
 895:Drivers/STM32G0xx_HAL_Driver/Src/stm32g0xx_hal_rcc_ex.c **** 
 1203              		.loc 1 895 18 is_stmt 0 view .LVU343
 1204 0288 1E4B     		ldr	r3, .L108
 1205 028a 5A6D     		ldr	r2, [r3, #84]
 895:Drivers/STM32G0xx_HAL_Driver/Src/stm32g0xx_hal_rcc_ex.c **** 
 1206              		.loc 1 895 16 view .LVU344
 1207 028c C023     		movs	r3, #192
 1208 028e 9B01     		lsls	r3, r3, #6
 1209 0290 1100     		movs	r1, r2
 1210 0292 1940     		ands	r1, r3
 1211              	.LVL89:
 897:Drivers/STM32G0xx_HAL_Driver/Src/stm32g0xx_hal_rcc_ex.c ****         {
 1212              		.loc 1 897 9 is_stmt 1 view .LVU345
 897:Drivers/STM32G0xx_HAL_Driver/Src/stm32g0xx_hal_rcc_ex.c ****         {
 1213              		.loc 1 897 12 is_stmt 0 view .LVU346
 1214 0294 1A42     		tst	r2, r3
 1215 0296 12D0     		beq	.L105
 901:Drivers/STM32G0xx_HAL_Driver/Src/stm32g0xx_hal_rcc_ex.c ****         {
ARM GAS  C:\Users\Xusniyor\AppData\Local\Temp\ccusJTJw.s 			page 46


 1216              		.loc 1 901 14 is_stmt 1 view .LVU347
 901:Drivers/STM32G0xx_HAL_Driver/Src/stm32g0xx_hal_rcc_ex.c ****         {
 1217              		.loc 1 901 17 is_stmt 0 view .LVU348
 1218 0298 8023     		movs	r3, #128
 1219 029a 5B01     		lsls	r3, r3, #5
 1220 029c 9942     		cmp	r1, r3
 1221 029e 11D0     		beq	.L106
 905:Drivers/STM32G0xx_HAL_Driver/Src/stm32g0xx_hal_rcc_ex.c ****         {
 1222              		.loc 1 905 14 is_stmt 1 view .LVU349
 905:Drivers/STM32G0xx_HAL_Driver/Src/stm32g0xx_hal_rcc_ex.c ****         {
 1223              		.loc 1 905 19 is_stmt 0 view .LVU350
 1224 02a0 184B     		ldr	r3, .L108
 1225 02a2 1A68     		ldr	r2, [r3]
 1226 02a4 8023     		movs	r3, #128
 1227 02a6 DB00     		lsls	r3, r3, #3
 1228 02a8 1000     		movs	r0, r2
 1229              	.LVL90:
 905:Drivers/STM32G0xx_HAL_Driver/Src/stm32g0xx_hal_rcc_ex.c ****         {
 1230              		.loc 1 905 19 view .LVU351
 1231 02aa 1840     		ands	r0, r3
 905:Drivers/STM32G0xx_HAL_Driver/Src/stm32g0xx_hal_rcc_ex.c ****         {
 1232              		.loc 1 905 17 view .LVU352
 1233 02ac 1A42     		tst	r2, r3
 1234 02ae 00D1     		bne	.LCB1137
 1235 02b0 50E7     		b	.L34	@long jump
 1236              	.LCB1137:
 905:Drivers/STM32G0xx_HAL_Driver/Src/stm32g0xx_hal_rcc_ex.c ****         {
 1237              		.loc 1 905 59 discriminator 1 view .LVU353
 1238 02b2 8023     		movs	r3, #128
 1239 02b4 9B01     		lsls	r3, r3, #6
 1240 02b6 9942     		cmp	r1, r3
 1241 02b8 6AD0     		beq	.L80
 614:Drivers/STM32G0xx_HAL_Driver/Src/stm32g0xx_hal_rcc_ex.c ****   uint32_t srcclk;
 1242              		.loc 1 614 12 view .LVU354
 1243 02ba 0020     		movs	r0, #0
 1244 02bc 4AE7     		b	.L34
 1245              	.LVL91:
 1246              	.L105:
 899:Drivers/STM32G0xx_HAL_Driver/Src/stm32g0xx_hal_rcc_ex.c ****         }
 1247              		.loc 1 899 11 is_stmt 1 view .LVU355
 899:Drivers/STM32G0xx_HAL_Driver/Src/stm32g0xx_hal_rcc_ex.c ****         }
 1248              		.loc 1 899 23 is_stmt 0 view .LVU356
 1249 02be FFF7FEFF 		bl	HAL_RCC_GetPCLK1Freq
 1250              	.LVL92:
 899:Drivers/STM32G0xx_HAL_Driver/Src/stm32g0xx_hal_rcc_ex.c ****         }
 1251              		.loc 1 899 23 view .LVU357
 1252 02c2 47E7     		b	.L34
 1253              	.LVL93:
 1254              	.L106:
 903:Drivers/STM32G0xx_HAL_Driver/Src/stm32g0xx_hal_rcc_ex.c ****         }
 1255              		.loc 1 903 11 is_stmt 1 view .LVU358
 903:Drivers/STM32G0xx_HAL_Driver/Src/stm32g0xx_hal_rcc_ex.c ****         }
 1256              		.loc 1 903 23 is_stmt 0 view .LVU359
 1257 02c4 FFF7FEFF 		bl	HAL_RCC_GetSysClockFreq
 1258              	.LVL94:
 903:Drivers/STM32G0xx_HAL_Driver/Src/stm32g0xx_hal_rcc_ex.c ****         }
 1259              		.loc 1 903 23 view .LVU360
ARM GAS  C:\Users\Xusniyor\AppData\Local\Temp\ccusJTJw.s 			page 47


 1260 02c8 44E7     		b	.L34
 1261              	.LVL95:
 1262              	.L99:
 947:Drivers/STM32G0xx_HAL_Driver/Src/stm32g0xx_hal_rcc_ex.c ****           {
 1263              		.loc 1 947 11 is_stmt 1 view .LVU361
 947:Drivers/STM32G0xx_HAL_Driver/Src/stm32g0xx_hal_rcc_ex.c ****           {
 1264              		.loc 1 947 15 is_stmt 0 view .LVU362
 1265 02ca 0E4B     		ldr	r3, .L108
 1266              	.LVL96:
 947:Drivers/STM32G0xx_HAL_Driver/Src/stm32g0xx_hal_rcc_ex.c ****           {
 1267              		.loc 1 947 15 view .LVU363
 1268 02cc D968     		ldr	r1, [r3, #12]
 1269 02ce 8023     		movs	r3, #128
 1270 02d0 5B02     		lsls	r3, r3, #9
 1271 02d2 0800     		movs	r0, r1
 1272              	.LVL97:
 947:Drivers/STM32G0xx_HAL_Driver/Src/stm32g0xx_hal_rcc_ex.c ****           {
 1273              		.loc 1 947 15 view .LVU364
 1274 02d4 1840     		ands	r0, r3
 947:Drivers/STM32G0xx_HAL_Driver/Src/stm32g0xx_hal_rcc_ex.c ****           {
 1275              		.loc 1 947 14 view .LVU365
 1276 02d6 1942     		tst	r1, r3
 1277 02d8 00D1     		bne	.LCB1182
 1278 02da 3BE7     		b	.L34	@long jump
 1279              	.LCB1182:
 950:Drivers/STM32G0xx_HAL_Driver/Src/stm32g0xx_hal_rcc_ex.c ****             frequency = (pllvco * plln) / ((READ_BIT(RCC->PLLCFGR, RCC_PLLCFGR_PLLP) >> RCC_PLLCFGR
 1280              		.loc 1 950 13 is_stmt 1 view .LVU366
 950:Drivers/STM32G0xx_HAL_Driver/Src/stm32g0xx_hal_rcc_ex.c ****             frequency = (pllvco * plln) / ((READ_BIT(RCC->PLLCFGR, RCC_PLLCFGR_PLLP) >> RCC_PLLCFGR
 1281              		.loc 1 950 20 is_stmt 0 view .LVU367
 1282 02dc 0949     		ldr	r1, .L108
 1283 02de CB68     		ldr	r3, [r1, #12]
 950:Drivers/STM32G0xx_HAL_Driver/Src/stm32g0xx_hal_rcc_ex.c ****             frequency = (pllvco * plln) / ((READ_BIT(RCC->PLLCFGR, RCC_PLLCFGR_PLLP) >> RCC_PLLCFGR
 1284              		.loc 1 950 61 view .LVU368
 1285 02e0 1B0A     		lsrs	r3, r3, #8
 950:Drivers/STM32G0xx_HAL_Driver/Src/stm32g0xx_hal_rcc_ex.c ****             frequency = (pllvco * plln) / ((READ_BIT(RCC->PLLCFGR, RCC_PLLCFGR_PLLP) >> RCC_PLLCFGR
 1286              		.loc 1 950 18 view .LVU369
 1287 02e2 7F20     		movs	r0, #127
 1288 02e4 1840     		ands	r0, r3
 1289              	.LVL98:
 951:Drivers/STM32G0xx_HAL_Driver/Src/stm32g0xx_hal_rcc_ex.c ****           }
 1290              		.loc 1 951 13 is_stmt 1 view .LVU370
 951:Drivers/STM32G0xx_HAL_Driver/Src/stm32g0xx_hal_rcc_ex.c ****           }
 1291              		.loc 1 951 33 is_stmt 0 view .LVU371
 1292 02e6 5043     		muls	r0, r2
 1293              	.LVL99:
 951:Drivers/STM32G0xx_HAL_Driver/Src/stm32g0xx_hal_rcc_ex.c ****           }
 1294              		.loc 1 951 45 view .LVU372
 1295 02e8 CB68     		ldr	r3, [r1, #12]
 1296              	.LVL100:
 951:Drivers/STM32G0xx_HAL_Driver/Src/stm32g0xx_hal_rcc_ex.c ****           }
 1297              		.loc 1 951 86 view .LVU373
 1298 02ea 5B0C     		lsrs	r3, r3, #17
 1299 02ec 1F21     		movs	r1, #31
 1300 02ee 1940     		ands	r1, r3
 951:Drivers/STM32G0xx_HAL_Driver/Src/stm32g0xx_hal_rcc_ex.c ****           }
 1301              		.loc 1 951 111 view .LVU374
 1302 02f0 0131     		adds	r1, r1, #1
ARM GAS  C:\Users\Xusniyor\AppData\Local\Temp\ccusJTJw.s 			page 48


 951:Drivers/STM32G0xx_HAL_Driver/Src/stm32g0xx_hal_rcc_ex.c ****           }
 1303              		.loc 1 951 23 view .LVU375
 1304 02f2 FFF7FEFF 		bl	__aeabi_uidiv
 1305              	.LVL101:
 951:Drivers/STM32G0xx_HAL_Driver/Src/stm32g0xx_hal_rcc_ex.c ****           }
 1306              		.loc 1 951 23 view .LVU376
 1307 02f6 2DE7     		b	.L34
 1308              	.LVL102:
 1309              	.L100:
 956:Drivers/STM32G0xx_HAL_Driver/Src/stm32g0xx_hal_rcc_ex.c ****         }
 1310              		.loc 1 956 11 is_stmt 1 view .LVU377
 956:Drivers/STM32G0xx_HAL_Driver/Src/stm32g0xx_hal_rcc_ex.c ****         }
 1311              		.loc 1 956 23 is_stmt 0 view .LVU378
 1312 02f8 FFF7FEFF 		bl	HAL_RCC_GetSysClockFreq
 1313              	.LVL103:
 956:Drivers/STM32G0xx_HAL_Driver/Src/stm32g0xx_hal_rcc_ex.c ****         }
 1314              		.loc 1 956 23 view .LVU379
 1315 02fc 2AE7     		b	.L34
 1316              	.LVL104:
 1317              	.L93:
1016:Drivers/STM32G0xx_HAL_Driver/Src/stm32g0xx_hal_rcc_ex.c ****         }
 1318              		.loc 1 1016 11 is_stmt 1 view .LVU380
1016:Drivers/STM32G0xx_HAL_Driver/Src/stm32g0xx_hal_rcc_ex.c ****         }
 1319              		.loc 1 1016 23 is_stmt 0 view .LVU381
 1320 02fe FFF7FEFF 		bl	HAL_RCC_GetPCLK1Freq
 1321              	.LVL105:
1016:Drivers/STM32G0xx_HAL_Driver/Src/stm32g0xx_hal_rcc_ex.c ****         }
 1322              		.loc 1 1016 23 view .LVU382
 1323 0302 27E7     		b	.L34
 1324              	.L109:
 1325              		.align	2
 1326              	.L108:
 1327 0304 00100240 		.word	1073876992
 1328 0308 00127A00 		.word	8000000
 1329 030c 0024F400 		.word	16000000
 1330              	.LVL106:
 1331              	.L40:
1041:Drivers/STM32G0xx_HAL_Driver/Src/stm32g0xx_hal_rcc_ex.c **** 
 1332              		.loc 1 1041 9 is_stmt 1 view .LVU383
1041:Drivers/STM32G0xx_HAL_Driver/Src/stm32g0xx_hal_rcc_ex.c **** 
 1333              		.loc 1 1041 18 is_stmt 0 view .LVU384
 1334 0310 2A4B     		ldr	r3, .L110
 1335 0312 5A6D     		ldr	r2, [r3, #84]
1041:Drivers/STM32G0xx_HAL_Driver/Src/stm32g0xx_hal_rcc_ex.c **** 
 1336              		.loc 1 1041 16 view .LVU385
 1337 0314 C023     		movs	r3, #192
 1338 0316 9B03     		lsls	r3, r3, #14
 1339 0318 1100     		movs	r1, r2
 1340 031a 1940     		ands	r1, r3
 1341              	.LVL107:
1043:Drivers/STM32G0xx_HAL_Driver/Src/stm32g0xx_hal_rcc_ex.c ****         {
 1342              		.loc 1 1043 9 is_stmt 1 view .LVU386
1043:Drivers/STM32G0xx_HAL_Driver/Src/stm32g0xx_hal_rcc_ex.c ****         {
 1343              		.loc 1 1043 12 is_stmt 0 view .LVU387
 1344 031c 1A42     		tst	r2, r3
 1345 031e 1DD0     		beq	.L107
1047:Drivers/STM32G0xx_HAL_Driver/Src/stm32g0xx_hal_rcc_ex.c ****         {
ARM GAS  C:\Users\Xusniyor\AppData\Local\Temp\ccusJTJw.s 			page 49


 1346              		.loc 1 1047 14 is_stmt 1 view .LVU388
1047:Drivers/STM32G0xx_HAL_Driver/Src/stm32g0xx_hal_rcc_ex.c ****         {
 1347              		.loc 1 1047 19 is_stmt 0 view .LVU389
 1348 0320 264B     		ldr	r3, .L110
 1349 0322 1B6E     		ldr	r3, [r3, #96]
1047:Drivers/STM32G0xx_HAL_Driver/Src/stm32g0xx_hal_rcc_ex.c ****         {
 1350              		.loc 1 1047 17 view .LVU390
 1351 0324 9B07     		lsls	r3, r3, #30
 1352 0326 03D5     		bpl	.L66
1047:Drivers/STM32G0xx_HAL_Driver/Src/stm32g0xx_hal_rcc_ex.c ****         {
 1353              		.loc 1 1047 61 discriminator 1 view .LVU391
 1354 0328 8023     		movs	r3, #128
 1355 032a 5B03     		lsls	r3, r3, #13
 1356 032c 9942     		cmp	r1, r3
 1357 032e 3DD0     		beq	.L86
 1358              	.L66:
1051:Drivers/STM32G0xx_HAL_Driver/Src/stm32g0xx_hal_rcc_ex.c ****         {
 1359              		.loc 1 1051 14 is_stmt 1 view .LVU392
1051:Drivers/STM32G0xx_HAL_Driver/Src/stm32g0xx_hal_rcc_ex.c ****         {
 1360              		.loc 1 1051 19 is_stmt 0 view .LVU393
 1361 0330 224B     		ldr	r3, .L110
 1362 0332 1B68     		ldr	r3, [r3]
1051:Drivers/STM32G0xx_HAL_Driver/Src/stm32g0xx_hal_rcc_ex.c ****         {
 1363              		.loc 1 1051 17 view .LVU394
 1364 0334 5B05     		lsls	r3, r3, #21
 1365 0336 03D5     		bpl	.L67
1051:Drivers/STM32G0xx_HAL_Driver/Src/stm32g0xx_hal_rcc_ex.c ****         {
 1366              		.loc 1 1051 59 discriminator 1 view .LVU395
 1367 0338 8023     		movs	r3, #128
 1368 033a 9B03     		lsls	r3, r3, #14
 1369 033c 9942     		cmp	r1, r3
 1370 033e 38D0     		beq	.L87
 1371              	.L67:
1055:Drivers/STM32G0xx_HAL_Driver/Src/stm32g0xx_hal_rcc_ex.c ****         {
 1372              		.loc 1 1055 14 is_stmt 1 view .LVU396
1055:Drivers/STM32G0xx_HAL_Driver/Src/stm32g0xx_hal_rcc_ex.c ****         {
 1373              		.loc 1 1055 19 is_stmt 0 view .LVU397
 1374 0340 1E4B     		ldr	r3, .L110
 1375 0342 DB6D     		ldr	r3, [r3, #92]
 1376 0344 0222     		movs	r2, #2
 1377 0346 1000     		movs	r0, r2
 1378              	.LVL108:
1055:Drivers/STM32G0xx_HAL_Driver/Src/stm32g0xx_hal_rcc_ex.c ****         {
 1379              		.loc 1 1055 19 view .LVU398
 1380 0348 1840     		ands	r0, r3
1055:Drivers/STM32G0xx_HAL_Driver/Src/stm32g0xx_hal_rcc_ex.c ****         {
 1381              		.loc 1 1055 17 view .LVU399
 1382 034a 1A42     		tst	r2, r3
 1383 034c 00D1     		bne	.LCB1285
 1384 034e 01E7     		b	.L34	@long jump
 1385              	.LCB1285:
1055:Drivers/STM32G0xx_HAL_Driver/Src/stm32g0xx_hal_rcc_ex.c ****         {
 1386              		.loc 1 1055 63 discriminator 1 view .LVU400
 1387 0350 C023     		movs	r3, #192
 1388 0352 9B03     		lsls	r3, r3, #14
 1389 0354 9942     		cmp	r1, r3
 1390 0356 2ED0     		beq	.L88
ARM GAS  C:\Users\Xusniyor\AppData\Local\Temp\ccusJTJw.s 			page 50


 614:Drivers/STM32G0xx_HAL_Driver/Src/stm32g0xx_hal_rcc_ex.c ****   uint32_t srcclk;
 1391              		.loc 1 614 12 view .LVU401
 1392 0358 0020     		movs	r0, #0
 1393 035a FBE6     		b	.L34
 1394              	.LVL109:
 1395              	.L107:
1045:Drivers/STM32G0xx_HAL_Driver/Src/stm32g0xx_hal_rcc_ex.c ****         }
 1396              		.loc 1 1045 11 is_stmt 1 view .LVU402
1045:Drivers/STM32G0xx_HAL_Driver/Src/stm32g0xx_hal_rcc_ex.c ****         }
 1397              		.loc 1 1045 23 is_stmt 0 view .LVU403
 1398 035c FFF7FEFF 		bl	HAL_RCC_GetPCLK1Freq
 1399              	.LVL110:
1045:Drivers/STM32G0xx_HAL_Driver/Src/stm32g0xx_hal_rcc_ex.c ****         }
 1400              		.loc 1 1045 23 view .LVU404
 1401 0360 F8E6     		b	.L34
 1402              	.LVL111:
 1403              	.L68:
1081:Drivers/STM32G0xx_HAL_Driver/Src/stm32g0xx_hal_rcc_ex.c ****         {
 1404              		.loc 1 1081 14 is_stmt 1 view .LVU405
1083:Drivers/STM32G0xx_HAL_Driver/Src/stm32g0xx_hal_rcc_ex.c ****         }
 1405              		.loc 1 1083 11 view .LVU406
1083:Drivers/STM32G0xx_HAL_Driver/Src/stm32g0xx_hal_rcc_ex.c ****         }
 1406              		.loc 1 1083 23 is_stmt 0 view .LVU407
 1407 0362 FFF7FEFF 		bl	HAL_RCC_GetPCLK1Freq
 1408              	.LVL112:
1083:Drivers/STM32G0xx_HAL_Driver/Src/stm32g0xx_hal_rcc_ex.c ****         }
 1409              		.loc 1 1083 23 view .LVU408
 1410 0366 F5E6     		b	.L34
 1411              	.LVL113:
 1412              	.L69:
 633:Drivers/STM32G0xx_HAL_Driver/Src/stm32g0xx_hal_rcc_ex.c ****     }
 1413              		.loc 1 633 17 view .LVU409
 1414 0368 8020     		movs	r0, #128
 1415              	.LVL114:
 633:Drivers/STM32G0xx_HAL_Driver/Src/stm32g0xx_hal_rcc_ex.c ****     }
 1416              		.loc 1 633 17 view .LVU410
 1417 036a 0002     		lsls	r0, r0, #8
 1418 036c F2E6     		b	.L34
 1419              	.LVL115:
 1420              	.L70:
 638:Drivers/STM32G0xx_HAL_Driver/Src/stm32g0xx_hal_rcc_ex.c ****     }
 1421              		.loc 1 638 17 view .LVU411
 1422 036e FA20     		movs	r0, #250
 1423              	.LVL116:
 638:Drivers/STM32G0xx_HAL_Driver/Src/stm32g0xx_hal_rcc_ex.c ****     }
 1424              		.loc 1 638 17 view .LVU412
 1425 0370 C001     		lsls	r0, r0, #7
 1426 0372 EFE6     		b	.L34
 1427              	.L71:
 643:Drivers/STM32G0xx_HAL_Driver/Src/stm32g0xx_hal_rcc_ex.c ****     }
 1428              		.loc 1 643 17 view .LVU413
 1429 0374 1248     		ldr	r0, .L110+4
 1430 0376 EDE6     		b	.L34
 1431              	.LVL117:
 1432              	.L74:
 716:Drivers/STM32G0xx_HAL_Driver/Src/stm32g0xx_hal_rcc_ex.c ****         }
 1433              		.loc 1 716 21 view .LVU414
ARM GAS  C:\Users\Xusniyor\AppData\Local\Temp\ccusJTJw.s 			page 51


 1434 0378 1248     		ldr	r0, .L110+8
 1435              	.LVL118:
 716:Drivers/STM32G0xx_HAL_Driver/Src/stm32g0xx_hal_rcc_ex.c ****         }
 1436              		.loc 1 716 21 view .LVU415
 1437 037a EBE6     		b	.L34
 1438              	.L75:
 720:Drivers/STM32G0xx_HAL_Driver/Src/stm32g0xx_hal_rcc_ex.c ****         }
 1439              		.loc 1 720 21 view .LVU416
 1440 037c 8020     		movs	r0, #128
 1441 037e 0002     		lsls	r0, r0, #8
 1442 0380 E8E6     		b	.L34
 1443              	.LVL119:
 1444              	.L76:
 822:Drivers/STM32G0xx_HAL_Driver/Src/stm32g0xx_hal_rcc_ex.c ****         }
 1445              		.loc 1 822 21 view .LVU417
 1446 0382 1048     		ldr	r0, .L110+8
 1447              	.LVL120:
 822:Drivers/STM32G0xx_HAL_Driver/Src/stm32g0xx_hal_rcc_ex.c ****         }
 1448              		.loc 1 822 21 view .LVU418
 1449 0384 E6E6     		b	.L34
 1450              	.L77:
 826:Drivers/STM32G0xx_HAL_Driver/Src/stm32g0xx_hal_rcc_ex.c ****         }
 1451              		.loc 1 826 21 view .LVU419
 1452 0386 8020     		movs	r0, #128
 1453 0388 0002     		lsls	r0, r0, #8
 1454 038a E3E6     		b	.L34
 1455              	.LVL121:
 1456              	.L78:
 875:Drivers/STM32G0xx_HAL_Driver/Src/stm32g0xx_hal_rcc_ex.c ****         }
 1457              		.loc 1 875 21 view .LVU420
 1458 038c 0D48     		ldr	r0, .L110+8
 1459              	.LVL122:
 875:Drivers/STM32G0xx_HAL_Driver/Src/stm32g0xx_hal_rcc_ex.c ****         }
 1460              		.loc 1 875 21 view .LVU421
 1461 038e E1E6     		b	.L34
 1462              	.LVL123:
 1463              	.L80:
 907:Drivers/STM32G0xx_HAL_Driver/Src/stm32g0xx_hal_rcc_ex.c ****         }
 1464              		.loc 1 907 21 view .LVU422
 1465 0390 0C48     		ldr	r0, .L110+8
 1466 0392 DFE6     		b	.L34
 1467              	.LVL124:
 1468              	.L81:
 960:Drivers/STM32G0xx_HAL_Driver/Src/stm32g0xx_hal_rcc_ex.c ****         }
 1469              		.loc 1 960 21 view .LVU423
 1470 0394 0B48     		ldr	r0, .L110+8
 1471              	.LVL125:
 960:Drivers/STM32G0xx_HAL_Driver/Src/stm32g0xx_hal_rcc_ex.c ****         }
 1472              		.loc 1 960 21 view .LVU424
 1473 0396 DDE6     		b	.L34
 1474              	.LVL126:
 1475              	.L82:
 965:Drivers/STM32G0xx_HAL_Driver/Src/stm32g0xx_hal_rcc_ex.c ****         }
 1476              		.loc 1 965 21 view .LVU425
 1477 0398 0B48     		ldr	r0, .L110+12
 1478              	.LVL127:
 965:Drivers/STM32G0xx_HAL_Driver/Src/stm32g0xx_hal_rcc_ex.c ****         }
ARM GAS  C:\Users\Xusniyor\AppData\Local\Temp\ccusJTJw.s 			page 52


 1479              		.loc 1 965 21 view .LVU426
 1480 039a DBE6     		b	.L34
 1481              	.LVL128:
 1482              	.L83:
1020:Drivers/STM32G0xx_HAL_Driver/Src/stm32g0xx_hal_rcc_ex.c ****         }
 1483              		.loc 1 1020 21 view .LVU427
 1484 039c FA20     		movs	r0, #250
 1485              	.LVL129:
1020:Drivers/STM32G0xx_HAL_Driver/Src/stm32g0xx_hal_rcc_ex.c ****         }
 1486              		.loc 1 1020 21 view .LVU428
 1487 039e C001     		lsls	r0, r0, #7
 1488 03a0 D8E6     		b	.L34
 1489              	.LVL130:
 1490              	.L84:
1024:Drivers/STM32G0xx_HAL_Driver/Src/stm32g0xx_hal_rcc_ex.c ****         }
 1491              		.loc 1 1024 21 view .LVU429
 1492 03a2 0848     		ldr	r0, .L110+8
 1493              	.LVL131:
1024:Drivers/STM32G0xx_HAL_Driver/Src/stm32g0xx_hal_rcc_ex.c ****         }
 1494              		.loc 1 1024 21 view .LVU430
 1495 03a4 D6E6     		b	.L34
 1496              	.L85:
1028:Drivers/STM32G0xx_HAL_Driver/Src/stm32g0xx_hal_rcc_ex.c ****         }
 1497              		.loc 1 1028 21 view .LVU431
 1498 03a6 8020     		movs	r0, #128
 1499 03a8 0002     		lsls	r0, r0, #8
 1500 03aa D3E6     		b	.L34
 1501              	.LVL132:
 1502              	.L86:
1049:Drivers/STM32G0xx_HAL_Driver/Src/stm32g0xx_hal_rcc_ex.c ****         }
 1503              		.loc 1 1049 21 view .LVU432
 1504 03ac FA20     		movs	r0, #250
 1505              	.LVL133:
1049:Drivers/STM32G0xx_HAL_Driver/Src/stm32g0xx_hal_rcc_ex.c ****         }
 1506              		.loc 1 1049 21 view .LVU433
 1507 03ae C001     		lsls	r0, r0, #7
 1508 03b0 D0E6     		b	.L34
 1509              	.LVL134:
 1510              	.L87:
1053:Drivers/STM32G0xx_HAL_Driver/Src/stm32g0xx_hal_rcc_ex.c ****         }
 1511              		.loc 1 1053 21 view .LVU434
 1512 03b2 0448     		ldr	r0, .L110+8
 1513              	.LVL135:
1053:Drivers/STM32G0xx_HAL_Driver/Src/stm32g0xx_hal_rcc_ex.c ****         }
 1514              		.loc 1 1053 21 view .LVU435
 1515 03b4 CEE6     		b	.L34
 1516              	.L88:
1057:Drivers/STM32G0xx_HAL_Driver/Src/stm32g0xx_hal_rcc_ex.c ****         }
 1517              		.loc 1 1057 21 view .LVU436
 1518 03b6 8020     		movs	r0, #128
 1519 03b8 0002     		lsls	r0, r0, #8
 1520              	.LVL136:
1188:Drivers/STM32G0xx_HAL_Driver/Src/stm32g0xx_hal_rcc_ex.c **** }
 1521              		.loc 1 1188 3 is_stmt 1 view .LVU437
1188:Drivers/STM32G0xx_HAL_Driver/Src/stm32g0xx_hal_rcc_ex.c **** }
 1522              		.loc 1 1188 10 is_stmt 0 view .LVU438
 1523 03ba CBE6     		b	.L34
ARM GAS  C:\Users\Xusniyor\AppData\Local\Temp\ccusJTJw.s 			page 53


 1524              	.L111:
 1525              		.align	2
 1526              	.L110:
 1527 03bc 00100240 		.word	1073876992
 1528 03c0 90D00300 		.word	250000
 1529 03c4 0024F400 		.word	16000000
 1530 03c8 0080BB00 		.word	12288000
 1531              		.cfi_endproc
 1532              	.LFE299:
 1534              		.section	.text.HAL_RCCEx_EnableLSCO,"ax",%progbits
 1535              		.align	1
 1536              		.global	HAL_RCCEx_EnableLSCO
 1537              		.syntax unified
 1538              		.code	16
 1539              		.thumb_func
 1541              	HAL_RCCEx_EnableLSCO:
 1542              	.LVL137:
 1543              	.LFB300:
1190:Drivers/STM32G0xx_HAL_Driver/Src/stm32g0xx_hal_rcc_ex.c **** 
1191:Drivers/STM32G0xx_HAL_Driver/Src/stm32g0xx_hal_rcc_ex.c **** /**
1192:Drivers/STM32G0xx_HAL_Driver/Src/stm32g0xx_hal_rcc_ex.c ****   * @}
1193:Drivers/STM32G0xx_HAL_Driver/Src/stm32g0xx_hal_rcc_ex.c ****   */
1194:Drivers/STM32G0xx_HAL_Driver/Src/stm32g0xx_hal_rcc_ex.c **** 
1195:Drivers/STM32G0xx_HAL_Driver/Src/stm32g0xx_hal_rcc_ex.c **** /** @defgroup RCCEx_Exported_Functions_Group2 Extended Clock management functions
1196:Drivers/STM32G0xx_HAL_Driver/Src/stm32g0xx_hal_rcc_ex.c ****   *  @brief  Extended Clock management functions
1197:Drivers/STM32G0xx_HAL_Driver/Src/stm32g0xx_hal_rcc_ex.c ****   *
1198:Drivers/STM32G0xx_HAL_Driver/Src/stm32g0xx_hal_rcc_ex.c **** @verbatim
1199:Drivers/STM32G0xx_HAL_Driver/Src/stm32g0xx_hal_rcc_ex.c ****  ===============================================================================
1200:Drivers/STM32G0xx_HAL_Driver/Src/stm32g0xx_hal_rcc_ex.c ****                 ##### Extended clock management functions  #####
1201:Drivers/STM32G0xx_HAL_Driver/Src/stm32g0xx_hal_rcc_ex.c ****  ===============================================================================
1202:Drivers/STM32G0xx_HAL_Driver/Src/stm32g0xx_hal_rcc_ex.c ****     [..]
1203:Drivers/STM32G0xx_HAL_Driver/Src/stm32g0xx_hal_rcc_ex.c ****     This subsection provides a set of functions allowing to control the
1204:Drivers/STM32G0xx_HAL_Driver/Src/stm32g0xx_hal_rcc_ex.c ****     activation or deactivation of LSE CSS, Low speed clock output and
1205:Drivers/STM32G0xx_HAL_Driver/Src/stm32g0xx_hal_rcc_ex.c ****     clock after wake-up from STOP mode.
1206:Drivers/STM32G0xx_HAL_Driver/Src/stm32g0xx_hal_rcc_ex.c **** @endverbatim
1207:Drivers/STM32G0xx_HAL_Driver/Src/stm32g0xx_hal_rcc_ex.c ****   * @{
1208:Drivers/STM32G0xx_HAL_Driver/Src/stm32g0xx_hal_rcc_ex.c ****   */
1209:Drivers/STM32G0xx_HAL_Driver/Src/stm32g0xx_hal_rcc_ex.c **** 
1210:Drivers/STM32G0xx_HAL_Driver/Src/stm32g0xx_hal_rcc_ex.c **** /**
1211:Drivers/STM32G0xx_HAL_Driver/Src/stm32g0xx_hal_rcc_ex.c ****   * @brief  Select the Low Speed clock source to output on LSCO pin (PA2).
1212:Drivers/STM32G0xx_HAL_Driver/Src/stm32g0xx_hal_rcc_ex.c ****   * @param  LSCOSource  specifies the Low Speed clock source to output.
1213:Drivers/STM32G0xx_HAL_Driver/Src/stm32g0xx_hal_rcc_ex.c ****   *          This parameter can be one of the following values:
1214:Drivers/STM32G0xx_HAL_Driver/Src/stm32g0xx_hal_rcc_ex.c ****   *            @arg @ref RCC_LSCOSOURCE_LSI  LSI clock selected as LSCO source
1215:Drivers/STM32G0xx_HAL_Driver/Src/stm32g0xx_hal_rcc_ex.c ****   *            @arg @ref RCC_LSCOSOURCE_LSE  LSE clock selected as LSCO source
1216:Drivers/STM32G0xx_HAL_Driver/Src/stm32g0xx_hal_rcc_ex.c ****   * @retval None
1217:Drivers/STM32G0xx_HAL_Driver/Src/stm32g0xx_hal_rcc_ex.c ****   */
1218:Drivers/STM32G0xx_HAL_Driver/Src/stm32g0xx_hal_rcc_ex.c **** void HAL_RCCEx_EnableLSCO(uint32_t LSCOSource)
1219:Drivers/STM32G0xx_HAL_Driver/Src/stm32g0xx_hal_rcc_ex.c **** {
 1544              		.loc 1 1219 1 is_stmt 1 view -0
 1545              		.cfi_startproc
 1546              		@ args = 0, pretend = 0, frame = 32
 1547              		@ frame_needed = 0, uses_anonymous_args = 0
 1548              		.loc 1 1219 1 is_stmt 0 view .LVU440
 1549 0000 30B5     		push	{r4, r5, lr}
 1550              	.LCFI3:
 1551              		.cfi_def_cfa_offset 12
 1552              		.cfi_offset 4, -12
ARM GAS  C:\Users\Xusniyor\AppData\Local\Temp\ccusJTJw.s 			page 54


 1553              		.cfi_offset 5, -8
 1554              		.cfi_offset 14, -4
 1555 0002 89B0     		sub	sp, sp, #36
 1556              	.LCFI4:
 1557              		.cfi_def_cfa_offset 48
 1558 0004 0500     		movs	r5, r0
1220:Drivers/STM32G0xx_HAL_Driver/Src/stm32g0xx_hal_rcc_ex.c ****   GPIO_InitTypeDef GPIO_InitStruct;
 1559              		.loc 1 1220 3 is_stmt 1 view .LVU441
1221:Drivers/STM32G0xx_HAL_Driver/Src/stm32g0xx_hal_rcc_ex.c ****   FlagStatus       pwrclkchanged = RESET;
 1560              		.loc 1 1221 3 view .LVU442
 1561              	.LVL138:
1222:Drivers/STM32G0xx_HAL_Driver/Src/stm32g0xx_hal_rcc_ex.c ****   FlagStatus       backupchanged = RESET;
 1562              		.loc 1 1222 3 view .LVU443
1223:Drivers/STM32G0xx_HAL_Driver/Src/stm32g0xx_hal_rcc_ex.c **** 
1224:Drivers/STM32G0xx_HAL_Driver/Src/stm32g0xx_hal_rcc_ex.c ****   /* Check the parameters */
1225:Drivers/STM32G0xx_HAL_Driver/Src/stm32g0xx_hal_rcc_ex.c ****   assert_param(IS_RCC_LSCOSOURCE(LSCOSource));
 1563              		.loc 1 1225 3 view .LVU444
1226:Drivers/STM32G0xx_HAL_Driver/Src/stm32g0xx_hal_rcc_ex.c **** 
1227:Drivers/STM32G0xx_HAL_Driver/Src/stm32g0xx_hal_rcc_ex.c ****   /* LSCO Pin Clock Enable */
1228:Drivers/STM32G0xx_HAL_Driver/Src/stm32g0xx_hal_rcc_ex.c ****   LSCO_CLK_ENABLE();
 1564              		.loc 1 1228 3 view .LVU445
 1565              	.LBB5:
 1566              		.loc 1 1228 3 view .LVU446
 1567              		.loc 1 1228 3 view .LVU447
 1568 0006 224C     		ldr	r4, .L122
 1569 0008 626B     		ldr	r2, [r4, #52]
 1570 000a 0123     		movs	r3, #1
 1571 000c 1A43     		orrs	r2, r3
 1572 000e 6263     		str	r2, [r4, #52]
 1573              		.loc 1 1228 3 view .LVU448
 1574 0010 626B     		ldr	r2, [r4, #52]
 1575 0012 1340     		ands	r3, r2
 1576 0014 0193     		str	r3, [sp, #4]
 1577              		.loc 1 1228 3 view .LVU449
 1578 0016 019B     		ldr	r3, [sp, #4]
 1579              	.LBE5:
 1580              		.loc 1 1228 3 view .LVU450
1229:Drivers/STM32G0xx_HAL_Driver/Src/stm32g0xx_hal_rcc_ex.c **** 
1230:Drivers/STM32G0xx_HAL_Driver/Src/stm32g0xx_hal_rcc_ex.c ****   /* Configure the LSCO pin in analog mode */
1231:Drivers/STM32G0xx_HAL_Driver/Src/stm32g0xx_hal_rcc_ex.c ****   GPIO_InitStruct.Pin = LSCO_PIN;
 1581              		.loc 1 1231 3 view .LVU451
 1582              		.loc 1 1231 23 is_stmt 0 view .LVU452
 1583 0018 0423     		movs	r3, #4
 1584 001a 0393     		str	r3, [sp, #12]
1232:Drivers/STM32G0xx_HAL_Driver/Src/stm32g0xx_hal_rcc_ex.c ****   GPIO_InitStruct.Mode = GPIO_MODE_ANALOG;
 1585              		.loc 1 1232 3 is_stmt 1 view .LVU453
 1586              		.loc 1 1232 24 is_stmt 0 view .LVU454
 1587 001c 013B     		subs	r3, r3, #1
 1588 001e 0493     		str	r3, [sp, #16]
1233:Drivers/STM32G0xx_HAL_Driver/Src/stm32g0xx_hal_rcc_ex.c ****   GPIO_InitStruct.Speed = GPIO_SPEED_FREQ_VERY_HIGH;
 1589              		.loc 1 1233 3 is_stmt 1 view .LVU455
 1590              		.loc 1 1233 25 is_stmt 0 view .LVU456
 1591 0020 0693     		str	r3, [sp, #24]
1234:Drivers/STM32G0xx_HAL_Driver/Src/stm32g0xx_hal_rcc_ex.c ****   GPIO_InitStruct.Pull = GPIO_NOPULL;
 1592              		.loc 1 1234 3 is_stmt 1 view .LVU457
 1593              		.loc 1 1234 24 is_stmt 0 view .LVU458
 1594 0022 0023     		movs	r3, #0
ARM GAS  C:\Users\Xusniyor\AppData\Local\Temp\ccusJTJw.s 			page 55


 1595 0024 0593     		str	r3, [sp, #20]
1235:Drivers/STM32G0xx_HAL_Driver/Src/stm32g0xx_hal_rcc_ex.c ****   HAL_GPIO_Init(LSCO_GPIO_PORT, &GPIO_InitStruct);
 1596              		.loc 1 1235 3 is_stmt 1 view .LVU459
 1597 0026 A020     		movs	r0, #160
 1598              	.LVL139:
 1599              		.loc 1 1235 3 is_stmt 0 view .LVU460
 1600 0028 03A9     		add	r1, sp, #12
 1601 002a C005     		lsls	r0, r0, #23
 1602 002c FFF7FEFF 		bl	HAL_GPIO_Init
 1603              	.LVL140:
1236:Drivers/STM32G0xx_HAL_Driver/Src/stm32g0xx_hal_rcc_ex.c **** 
1237:Drivers/STM32G0xx_HAL_Driver/Src/stm32g0xx_hal_rcc_ex.c ****   /* Update LSCOSEL clock source in Backup Domain control register */
1238:Drivers/STM32G0xx_HAL_Driver/Src/stm32g0xx_hal_rcc_ex.c ****   if (__HAL_RCC_PWR_IS_CLK_DISABLED())
 1604              		.loc 1 1238 3 is_stmt 1 view .LVU461
 1605              		.loc 1 1238 7 is_stmt 0 view .LVU462
 1606 0030 E36B     		ldr	r3, [r4, #60]
 1607              		.loc 1 1238 6 view .LVU463
 1608 0032 DB00     		lsls	r3, r3, #3
 1609 0034 1DD4     		bmi	.L117
1239:Drivers/STM32G0xx_HAL_Driver/Src/stm32g0xx_hal_rcc_ex.c ****   {
1240:Drivers/STM32G0xx_HAL_Driver/Src/stm32g0xx_hal_rcc_ex.c ****     __HAL_RCC_PWR_CLK_ENABLE();
 1610              		.loc 1 1240 5 is_stmt 1 view .LVU464
 1611              	.LBB6:
 1612              		.loc 1 1240 5 view .LVU465
 1613              		.loc 1 1240 5 view .LVU466
 1614 0036 E16B     		ldr	r1, [r4, #60]
 1615 0038 8020     		movs	r0, #128
 1616 003a 4005     		lsls	r0, r0, #21
 1617 003c 0143     		orrs	r1, r0
 1618 003e E163     		str	r1, [r4, #60]
 1619              		.loc 1 1240 5 view .LVU467
 1620 0040 E36B     		ldr	r3, [r4, #60]
 1621 0042 0340     		ands	r3, r0
 1622 0044 0293     		str	r3, [sp, #8]
 1623              		.loc 1 1240 5 view .LVU468
 1624 0046 029B     		ldr	r3, [sp, #8]
 1625              	.LBE6:
 1626              		.loc 1 1240 5 view .LVU469
1241:Drivers/STM32G0xx_HAL_Driver/Src/stm32g0xx_hal_rcc_ex.c ****     pwrclkchanged = SET;
 1627              		.loc 1 1241 5 view .LVU470
 1628              	.LVL141:
 1629              		.loc 1 1241 19 is_stmt 0 view .LVU471
 1630 0048 0124     		movs	r4, #1
 1631              	.LVL142:
 1632              	.L113:
1242:Drivers/STM32G0xx_HAL_Driver/Src/stm32g0xx_hal_rcc_ex.c ****   }
1243:Drivers/STM32G0xx_HAL_Driver/Src/stm32g0xx_hal_rcc_ex.c ****   if (HAL_IS_BIT_CLR(PWR->CR1, PWR_CR1_DBP))
 1633              		.loc 1 1243 3 is_stmt 1 view .LVU472
 1634              		.loc 1 1243 7 is_stmt 0 view .LVU473
 1635 004a 124B     		ldr	r3, .L122+4
 1636 004c 1B68     		ldr	r3, [r3]
 1637              		.loc 1 1243 6 view .LVU474
 1638 004e DB05     		lsls	r3, r3, #23
 1639 0050 11D5     		bpl	.L119
1222:Drivers/STM32G0xx_HAL_Driver/Src/stm32g0xx_hal_rcc_ex.c **** 
 1640              		.loc 1 1222 20 view .LVU475
 1641 0052 0021     		movs	r1, #0
ARM GAS  C:\Users\Xusniyor\AppData\Local\Temp\ccusJTJw.s 			page 56


 1642              	.LVL143:
 1643              	.L114:
1244:Drivers/STM32G0xx_HAL_Driver/Src/stm32g0xx_hal_rcc_ex.c ****   {
1245:Drivers/STM32G0xx_HAL_Driver/Src/stm32g0xx_hal_rcc_ex.c ****     HAL_PWR_EnableBkUpAccess();
1246:Drivers/STM32G0xx_HAL_Driver/Src/stm32g0xx_hal_rcc_ex.c ****     backupchanged = SET;
1247:Drivers/STM32G0xx_HAL_Driver/Src/stm32g0xx_hal_rcc_ex.c ****   }
1248:Drivers/STM32G0xx_HAL_Driver/Src/stm32g0xx_hal_rcc_ex.c **** 
1249:Drivers/STM32G0xx_HAL_Driver/Src/stm32g0xx_hal_rcc_ex.c ****   MODIFY_REG(RCC->BDCR, RCC_BDCR_LSCOSEL | RCC_BDCR_LSCOEN, LSCOSource | RCC_BDCR_LSCOEN);
 1644              		.loc 1 1249 3 is_stmt 1 view .LVU476
 1645 0054 0E4A     		ldr	r2, .L122
 1646 0056 D06D     		ldr	r0, [r2, #92]
 1647 0058 0F4B     		ldr	r3, .L122+8
 1648 005a 1840     		ands	r0, r3
 1649 005c 2843     		orrs	r0, r5
 1650 005e 8023     		movs	r3, #128
 1651 0060 5B04     		lsls	r3, r3, #17
 1652 0062 1843     		orrs	r0, r3
 1653 0064 D065     		str	r0, [r2, #92]
1250:Drivers/STM32G0xx_HAL_Driver/Src/stm32g0xx_hal_rcc_ex.c **** 
1251:Drivers/STM32G0xx_HAL_Driver/Src/stm32g0xx_hal_rcc_ex.c ****   if (backupchanged == SET)
 1654              		.loc 1 1251 3 view .LVU477
 1655              		.loc 1 1251 6 is_stmt 0 view .LVU478
 1656 0066 0129     		cmp	r1, #1
 1657 0068 09D0     		beq	.L120
 1658              	.LVL144:
 1659              	.L115:
1252:Drivers/STM32G0xx_HAL_Driver/Src/stm32g0xx_hal_rcc_ex.c ****   {
1253:Drivers/STM32G0xx_HAL_Driver/Src/stm32g0xx_hal_rcc_ex.c ****     HAL_PWR_DisableBkUpAccess();
1254:Drivers/STM32G0xx_HAL_Driver/Src/stm32g0xx_hal_rcc_ex.c ****   }
1255:Drivers/STM32G0xx_HAL_Driver/Src/stm32g0xx_hal_rcc_ex.c ****   if (pwrclkchanged == SET)
 1660              		.loc 1 1255 3 is_stmt 1 view .LVU479
 1661              		.loc 1 1255 6 is_stmt 0 view .LVU480
 1662 006a 012C     		cmp	r4, #1
 1663 006c 0AD0     		beq	.L121
 1664              	.L112:
1256:Drivers/STM32G0xx_HAL_Driver/Src/stm32g0xx_hal_rcc_ex.c ****   {
1257:Drivers/STM32G0xx_HAL_Driver/Src/stm32g0xx_hal_rcc_ex.c ****     __HAL_RCC_PWR_CLK_DISABLE();
1258:Drivers/STM32G0xx_HAL_Driver/Src/stm32g0xx_hal_rcc_ex.c ****   }
1259:Drivers/STM32G0xx_HAL_Driver/Src/stm32g0xx_hal_rcc_ex.c **** }
 1665              		.loc 1 1259 1 view .LVU481
 1666 006e 09B0     		add	sp, sp, #36
 1667              		@ sp needed
 1668              	.LVL145:
 1669              	.LVL146:
 1670              		.loc 1 1259 1 view .LVU482
 1671 0070 30BD     		pop	{r4, r5, pc}
 1672              	.LVL147:
 1673              	.L117:
1221:Drivers/STM32G0xx_HAL_Driver/Src/stm32g0xx_hal_rcc_ex.c ****   FlagStatus       backupchanged = RESET;
 1674              		.loc 1 1221 20 view .LVU483
 1675 0072 0024     		movs	r4, #0
 1676 0074 E9E7     		b	.L113
 1677              	.LVL148:
 1678              	.L119:
1245:Drivers/STM32G0xx_HAL_Driver/Src/stm32g0xx_hal_rcc_ex.c ****     backupchanged = SET;
 1679              		.loc 1 1245 5 is_stmt 1 view .LVU484
 1680 0076 FFF7FEFF 		bl	HAL_PWR_EnableBkUpAccess
ARM GAS  C:\Users\Xusniyor\AppData\Local\Temp\ccusJTJw.s 			page 57


 1681              	.LVL149:
1246:Drivers/STM32G0xx_HAL_Driver/Src/stm32g0xx_hal_rcc_ex.c ****   }
 1682              		.loc 1 1246 5 view .LVU485
1246:Drivers/STM32G0xx_HAL_Driver/Src/stm32g0xx_hal_rcc_ex.c ****   }
 1683              		.loc 1 1246 19 is_stmt 0 view .LVU486
 1684 007a 0121     		movs	r1, #1
 1685 007c EAE7     		b	.L114
 1686              	.LVL150:
 1687              	.L120:
1253:Drivers/STM32G0xx_HAL_Driver/Src/stm32g0xx_hal_rcc_ex.c ****   }
 1688              		.loc 1 1253 5 is_stmt 1 view .LVU487
 1689 007e FFF7FEFF 		bl	HAL_PWR_DisableBkUpAccess
 1690              	.LVL151:
1253:Drivers/STM32G0xx_HAL_Driver/Src/stm32g0xx_hal_rcc_ex.c ****   }
 1691              		.loc 1 1253 5 is_stmt 0 view .LVU488
 1692 0082 F2E7     		b	.L115
 1693              	.L121:
1257:Drivers/STM32G0xx_HAL_Driver/Src/stm32g0xx_hal_rcc_ex.c ****   }
 1694              		.loc 1 1257 5 is_stmt 1 view .LVU489
 1695 0084 024A     		ldr	r2, .L122
 1696 0086 D36B     		ldr	r3, [r2, #60]
 1697 0088 0449     		ldr	r1, .L122+12
 1698 008a 0B40     		ands	r3, r1
 1699 008c D363     		str	r3, [r2, #60]
 1700              		.loc 1 1259 1 is_stmt 0 view .LVU490
 1701 008e EEE7     		b	.L112
 1702              	.L123:
 1703              		.align	2
 1704              	.L122:
 1705 0090 00100240 		.word	1073876992
 1706 0094 00700040 		.word	1073770496
 1707 0098 FFFFFFFC 		.word	-50331649
 1708 009c FFFFFFEF 		.word	-268435457
 1709              		.cfi_endproc
 1710              	.LFE300:
 1712              		.section	.text.HAL_RCCEx_DisableLSCO,"ax",%progbits
 1713              		.align	1
 1714              		.global	HAL_RCCEx_DisableLSCO
 1715              		.syntax unified
 1716              		.code	16
 1717              		.thumb_func
 1719              	HAL_RCCEx_DisableLSCO:
 1720              	.LFB301:
1260:Drivers/STM32G0xx_HAL_Driver/Src/stm32g0xx_hal_rcc_ex.c **** 
1261:Drivers/STM32G0xx_HAL_Driver/Src/stm32g0xx_hal_rcc_ex.c **** /**
1262:Drivers/STM32G0xx_HAL_Driver/Src/stm32g0xx_hal_rcc_ex.c ****   * @brief  Disable the Low Speed clock output.
1263:Drivers/STM32G0xx_HAL_Driver/Src/stm32g0xx_hal_rcc_ex.c ****   * @retval None
1264:Drivers/STM32G0xx_HAL_Driver/Src/stm32g0xx_hal_rcc_ex.c ****   */
1265:Drivers/STM32G0xx_HAL_Driver/Src/stm32g0xx_hal_rcc_ex.c **** void HAL_RCCEx_DisableLSCO(void)
1266:Drivers/STM32G0xx_HAL_Driver/Src/stm32g0xx_hal_rcc_ex.c **** {
 1721              		.loc 1 1266 1 is_stmt 1 view -0
 1722              		.cfi_startproc
 1723              		@ args = 0, pretend = 0, frame = 8
 1724              		@ frame_needed = 0, uses_anonymous_args = 0
 1725 0000 10B5     		push	{r4, lr}
 1726              	.LCFI5:
 1727              		.cfi_def_cfa_offset 8
ARM GAS  C:\Users\Xusniyor\AppData\Local\Temp\ccusJTJw.s 			page 58


 1728              		.cfi_offset 4, -8
 1729              		.cfi_offset 14, -4
 1730 0002 82B0     		sub	sp, sp, #8
 1731              	.LCFI6:
 1732              		.cfi_def_cfa_offset 16
1267:Drivers/STM32G0xx_HAL_Driver/Src/stm32g0xx_hal_rcc_ex.c ****   FlagStatus       pwrclkchanged = RESET;
 1733              		.loc 1 1267 3 view .LVU492
 1734              	.LVL152:
1268:Drivers/STM32G0xx_HAL_Driver/Src/stm32g0xx_hal_rcc_ex.c ****   FlagStatus       backupchanged = RESET;
 1735              		.loc 1 1268 3 view .LVU493
1269:Drivers/STM32G0xx_HAL_Driver/Src/stm32g0xx_hal_rcc_ex.c **** 
1270:Drivers/STM32G0xx_HAL_Driver/Src/stm32g0xx_hal_rcc_ex.c ****   /* Update LSCOEN bit in Backup Domain control register */
1271:Drivers/STM32G0xx_HAL_Driver/Src/stm32g0xx_hal_rcc_ex.c ****   if (__HAL_RCC_PWR_IS_CLK_DISABLED())
 1736              		.loc 1 1271 3 view .LVU494
 1737              		.loc 1 1271 7 is_stmt 0 view .LVU495
 1738 0004 164B     		ldr	r3, .L134
 1739 0006 DB6B     		ldr	r3, [r3, #60]
 1740              		.loc 1 1271 6 view .LVU496
 1741 0008 DB00     		lsls	r3, r3, #3
 1742 000a 1AD4     		bmi	.L129
1272:Drivers/STM32G0xx_HAL_Driver/Src/stm32g0xx_hal_rcc_ex.c ****   {
1273:Drivers/STM32G0xx_HAL_Driver/Src/stm32g0xx_hal_rcc_ex.c ****     __HAL_RCC_PWR_CLK_ENABLE();
 1743              		.loc 1 1273 5 is_stmt 1 view .LVU497
 1744              	.LBB7:
 1745              		.loc 1 1273 5 view .LVU498
 1746              		.loc 1 1273 5 view .LVU499
 1747 000c 144A     		ldr	r2, .L134
 1748 000e D16B     		ldr	r1, [r2, #60]
 1749 0010 8020     		movs	r0, #128
 1750 0012 4005     		lsls	r0, r0, #21
 1751 0014 0143     		orrs	r1, r0
 1752 0016 D163     		str	r1, [r2, #60]
 1753              		.loc 1 1273 5 view .LVU500
 1754 0018 D36B     		ldr	r3, [r2, #60]
 1755 001a 0340     		ands	r3, r0
 1756 001c 0193     		str	r3, [sp, #4]
 1757              		.loc 1 1273 5 view .LVU501
 1758 001e 019B     		ldr	r3, [sp, #4]
 1759              	.LBE7:
 1760              		.loc 1 1273 5 view .LVU502
1274:Drivers/STM32G0xx_HAL_Driver/Src/stm32g0xx_hal_rcc_ex.c ****     pwrclkchanged = SET;
 1761              		.loc 1 1274 5 view .LVU503
 1762              	.LVL153:
 1763              		.loc 1 1274 19 is_stmt 0 view .LVU504
 1764 0020 0124     		movs	r4, #1
 1765              	.LVL154:
 1766              	.L125:
1275:Drivers/STM32G0xx_HAL_Driver/Src/stm32g0xx_hal_rcc_ex.c ****   }
1276:Drivers/STM32G0xx_HAL_Driver/Src/stm32g0xx_hal_rcc_ex.c ****   if (HAL_IS_BIT_CLR(PWR->CR1, PWR_CR1_DBP))
 1767              		.loc 1 1276 3 is_stmt 1 view .LVU505
 1768              		.loc 1 1276 7 is_stmt 0 view .LVU506
 1769 0022 104B     		ldr	r3, .L134+4
 1770 0024 1B68     		ldr	r3, [r3]
 1771              		.loc 1 1276 6 view .LVU507
 1772 0026 DB05     		lsls	r3, r3, #23
 1773 0028 0DD5     		bpl	.L131
1268:Drivers/STM32G0xx_HAL_Driver/Src/stm32g0xx_hal_rcc_ex.c **** 
ARM GAS  C:\Users\Xusniyor\AppData\Local\Temp\ccusJTJw.s 			page 59


 1774              		.loc 1 1268 20 view .LVU508
 1775 002a 0021     		movs	r1, #0
 1776              	.LVL155:
 1777              	.L126:
1277:Drivers/STM32G0xx_HAL_Driver/Src/stm32g0xx_hal_rcc_ex.c ****   {
1278:Drivers/STM32G0xx_HAL_Driver/Src/stm32g0xx_hal_rcc_ex.c ****     /* Enable access to the backup domain */
1279:Drivers/STM32G0xx_HAL_Driver/Src/stm32g0xx_hal_rcc_ex.c ****     HAL_PWR_EnableBkUpAccess();
1280:Drivers/STM32G0xx_HAL_Driver/Src/stm32g0xx_hal_rcc_ex.c ****     backupchanged = SET;
1281:Drivers/STM32G0xx_HAL_Driver/Src/stm32g0xx_hal_rcc_ex.c ****   }
1282:Drivers/STM32G0xx_HAL_Driver/Src/stm32g0xx_hal_rcc_ex.c **** 
1283:Drivers/STM32G0xx_HAL_Driver/Src/stm32g0xx_hal_rcc_ex.c ****   CLEAR_BIT(RCC->BDCR, RCC_BDCR_LSCOEN);
 1778              		.loc 1 1283 3 is_stmt 1 view .LVU509
 1779 002c 0C4A     		ldr	r2, .L134
 1780 002e D36D     		ldr	r3, [r2, #92]
 1781 0030 0D48     		ldr	r0, .L134+8
 1782 0032 0340     		ands	r3, r0
 1783 0034 D365     		str	r3, [r2, #92]
1284:Drivers/STM32G0xx_HAL_Driver/Src/stm32g0xx_hal_rcc_ex.c **** 
1285:Drivers/STM32G0xx_HAL_Driver/Src/stm32g0xx_hal_rcc_ex.c ****   /* Restore previous configuration */
1286:Drivers/STM32G0xx_HAL_Driver/Src/stm32g0xx_hal_rcc_ex.c ****   if (backupchanged == SET)
 1784              		.loc 1 1286 3 view .LVU510
 1785              		.loc 1 1286 6 is_stmt 0 view .LVU511
 1786 0036 0129     		cmp	r1, #1
 1787 0038 09D0     		beq	.L132
 1788              	.LVL156:
 1789              	.L127:
1287:Drivers/STM32G0xx_HAL_Driver/Src/stm32g0xx_hal_rcc_ex.c ****   {
1288:Drivers/STM32G0xx_HAL_Driver/Src/stm32g0xx_hal_rcc_ex.c ****     /* Disable access to the backup domain */
1289:Drivers/STM32G0xx_HAL_Driver/Src/stm32g0xx_hal_rcc_ex.c ****     HAL_PWR_DisableBkUpAccess();
1290:Drivers/STM32G0xx_HAL_Driver/Src/stm32g0xx_hal_rcc_ex.c ****   }
1291:Drivers/STM32G0xx_HAL_Driver/Src/stm32g0xx_hal_rcc_ex.c ****   if (pwrclkchanged == SET)
 1790              		.loc 1 1291 3 is_stmt 1 view .LVU512
 1791              		.loc 1 1291 6 is_stmt 0 view .LVU513
 1792 003a 012C     		cmp	r4, #1
 1793 003c 0AD0     		beq	.L133
 1794              	.L124:
1292:Drivers/STM32G0xx_HAL_Driver/Src/stm32g0xx_hal_rcc_ex.c ****   {
1293:Drivers/STM32G0xx_HAL_Driver/Src/stm32g0xx_hal_rcc_ex.c ****     __HAL_RCC_PWR_CLK_DISABLE();
1294:Drivers/STM32G0xx_HAL_Driver/Src/stm32g0xx_hal_rcc_ex.c ****   }
1295:Drivers/STM32G0xx_HAL_Driver/Src/stm32g0xx_hal_rcc_ex.c **** }
 1795              		.loc 1 1295 1 view .LVU514
 1796 003e 02B0     		add	sp, sp, #8
 1797              		@ sp needed
 1798              	.LVL157:
 1799              		.loc 1 1295 1 view .LVU515
 1800 0040 10BD     		pop	{r4, pc}
 1801              	.LVL158:
 1802              	.L129:
1267:Drivers/STM32G0xx_HAL_Driver/Src/stm32g0xx_hal_rcc_ex.c ****   FlagStatus       backupchanged = RESET;
 1803              		.loc 1 1267 20 view .LVU516
 1804 0042 0024     		movs	r4, #0
 1805 0044 EDE7     		b	.L125
 1806              	.LVL159:
 1807              	.L131:
1279:Drivers/STM32G0xx_HAL_Driver/Src/stm32g0xx_hal_rcc_ex.c ****     backupchanged = SET;
 1808              		.loc 1 1279 5 is_stmt 1 view .LVU517
 1809 0046 FFF7FEFF 		bl	HAL_PWR_EnableBkUpAccess
ARM GAS  C:\Users\Xusniyor\AppData\Local\Temp\ccusJTJw.s 			page 60


 1810              	.LVL160:
1280:Drivers/STM32G0xx_HAL_Driver/Src/stm32g0xx_hal_rcc_ex.c ****   }
 1811              		.loc 1 1280 5 view .LVU518
1280:Drivers/STM32G0xx_HAL_Driver/Src/stm32g0xx_hal_rcc_ex.c ****   }
 1812              		.loc 1 1280 19 is_stmt 0 view .LVU519
 1813 004a 0121     		movs	r1, #1
 1814 004c EEE7     		b	.L126
 1815              	.LVL161:
 1816              	.L132:
1289:Drivers/STM32G0xx_HAL_Driver/Src/stm32g0xx_hal_rcc_ex.c ****   }
 1817              		.loc 1 1289 5 is_stmt 1 view .LVU520
 1818 004e FFF7FEFF 		bl	HAL_PWR_DisableBkUpAccess
 1819              	.LVL162:
1289:Drivers/STM32G0xx_HAL_Driver/Src/stm32g0xx_hal_rcc_ex.c ****   }
 1820              		.loc 1 1289 5 is_stmt 0 view .LVU521
 1821 0052 F2E7     		b	.L127
 1822              	.L133:
1293:Drivers/STM32G0xx_HAL_Driver/Src/stm32g0xx_hal_rcc_ex.c ****   }
 1823              		.loc 1 1293 5 is_stmt 1 view .LVU522
 1824 0054 024A     		ldr	r2, .L134
 1825 0056 D36B     		ldr	r3, [r2, #60]
 1826 0058 0449     		ldr	r1, .L134+12
 1827 005a 0B40     		ands	r3, r1
 1828 005c D363     		str	r3, [r2, #60]
 1829              		.loc 1 1295 1 is_stmt 0 view .LVU523
 1830 005e EEE7     		b	.L124
 1831              	.L135:
 1832              		.align	2
 1833              	.L134:
 1834 0060 00100240 		.word	1073876992
 1835 0064 00700040 		.word	1073770496
 1836 0068 FFFFFFFE 		.word	-16777217
 1837 006c FFFFFFEF 		.word	-268435457
 1838              		.cfi_endproc
 1839              	.LFE301:
 1841              		.text
 1842              	.Letext0:
 1843              		.file 2 "c:\\program files (x86)\\gnu arm embedded toolchain\\10 2021.10\\arm-none-eabi\\include\\
 1844              		.file 3 "c:\\program files (x86)\\gnu arm embedded toolchain\\10 2021.10\\arm-none-eabi\\include\\
 1845              		.file 4 "Drivers/CMSIS/Device/ST/STM32G0xx/Include/stm32g031xx.h"
 1846              		.file 5 "Drivers/CMSIS/Device/ST/STM32G0xx/Include/stm32g0xx.h"
 1847              		.file 6 "Drivers/STM32G0xx_HAL_Driver/Inc/stm32g0xx_hal_def.h"
 1848              		.file 7 "Drivers/STM32G0xx_HAL_Driver/Inc/stm32g0xx_hal_rcc_ex.h"
 1849              		.file 8 "Drivers/STM32G0xx_HAL_Driver/Inc/stm32g0xx_hal_gpio.h"
 1850              		.file 9 "Drivers/STM32G0xx_HAL_Driver/Inc/stm32g0xx_ll_dma.h"
 1851              		.file 10 "Drivers/STM32G0xx_HAL_Driver/Inc/stm32g0xx_hal_pwr.h"
 1852              		.file 11 "Drivers/STM32G0xx_HAL_Driver/Inc/stm32g0xx_hal_rcc.h"
 1853              		.file 12 "Drivers/STM32G0xx_HAL_Driver/Inc/stm32g0xx_hal.h"
ARM GAS  C:\Users\Xusniyor\AppData\Local\Temp\ccusJTJw.s 			page 61

