ARM GAS  C:\Users\Xusniyor\AppData\Local\Temp\cc7F7IMk.s 			page 1


   1              		.cpu cortex-m0plus
   2              		.arch armv6s-m
   3              		.fpu softvfp
   4              		.eabi_attribute 20, 1
   5              		.eabi_attribute 21, 1
   6              		.eabi_attribute 23, 3
   7              		.eabi_attribute 24, 1
   8              		.eabi_attribute 25, 1
   9              		.eabi_attribute 26, 1
  10              		.eabi_attribute 30, 1
  11              		.eabi_attribute 34, 0
  12              		.eabi_attribute 18, 4
  13              		.file	"usart.c"
  14              		.text
  15              	.Ltext0:
  16              		.cfi_sections	.debug_frame
  17              		.section	.text.MX_USART1_UART_Init,"ax",%progbits
  18              		.align	1
  19              		.global	MX_USART1_UART_Init
  20              		.syntax unified
  21              		.code	16
  22              		.thumb_func
  24              	MX_USART1_UART_Init:
  25              	.LFB297:
  26              		.file 1 "Core/Src/usart.c"
   1:Core/Src/usart.c **** /* USER CODE BEGIN Header */
   2:Core/Src/usart.c **** /**
   3:Core/Src/usart.c ****   ******************************************************************************
   4:Core/Src/usart.c ****   * @file    usart.c
   5:Core/Src/usart.c ****   * @brief   This file provides code for the configuration
   6:Core/Src/usart.c ****   *          of the USART instances.
   7:Core/Src/usart.c ****   ******************************************************************************
   8:Core/Src/usart.c ****   * @attention
   9:Core/Src/usart.c ****   *
  10:Core/Src/usart.c ****   * Copyright (c) 2022 STMicroelectronics.
  11:Core/Src/usart.c ****   * All rights reserved.
  12:Core/Src/usart.c ****   *
  13:Core/Src/usart.c ****   * This software is licensed under terms that can be found in the LICENSE file
  14:Core/Src/usart.c ****   * in the root directory of this software component.
  15:Core/Src/usart.c ****   * If no LICENSE file comes with this software, it is provided AS-IS.
  16:Core/Src/usart.c ****   *
  17:Core/Src/usart.c ****   ******************************************************************************
  18:Core/Src/usart.c ****   */
  19:Core/Src/usart.c **** /* USER CODE END Header */
  20:Core/Src/usart.c **** /* Includes ------------------------------------------------------------------*/
  21:Core/Src/usart.c **** #include "usart.h"
  22:Core/Src/usart.c **** 
  23:Core/Src/usart.c **** /* USER CODE BEGIN 0 */
  24:Core/Src/usart.c **** 
  25:Core/Src/usart.c **** /* USER CODE END 0 */
  26:Core/Src/usart.c **** 
  27:Core/Src/usart.c **** UART_HandleTypeDef huart1;
  28:Core/Src/usart.c **** DMA_HandleTypeDef hdma_usart1_rx;
  29:Core/Src/usart.c **** DMA_HandleTypeDef hdma_usart1_tx;
  30:Core/Src/usart.c **** 
  31:Core/Src/usart.c **** /* USART1 init function */
  32:Core/Src/usart.c **** 
ARM GAS  C:\Users\Xusniyor\AppData\Local\Temp\cc7F7IMk.s 			page 2


  33:Core/Src/usart.c **** void MX_USART1_UART_Init(void)
  34:Core/Src/usart.c **** {
  27              		.loc 1 34 1 view -0
  28              		.cfi_startproc
  29              		@ args = 0, pretend = 0, frame = 0
  30              		@ frame_needed = 0, uses_anonymous_args = 0
  31 0000 10B5     		push	{r4, lr}
  32              	.LCFI0:
  33              		.cfi_def_cfa_offset 8
  34              		.cfi_offset 4, -8
  35              		.cfi_offset 14, -4
  35:Core/Src/usart.c **** 
  36:Core/Src/usart.c ****   /* USER CODE BEGIN USART1_Init 0 */
  37:Core/Src/usart.c **** 
  38:Core/Src/usart.c ****   /* USER CODE END USART1_Init 0 */
  39:Core/Src/usart.c **** 
  40:Core/Src/usart.c ****   /* USER CODE BEGIN USART1_Init 1 */
  41:Core/Src/usart.c **** 
  42:Core/Src/usart.c ****   /* USER CODE END USART1_Init 1 */
  43:Core/Src/usart.c ****   huart1.Instance = USART1;
  36              		.loc 1 43 3 view .LVU1
  37              		.loc 1 43 19 is_stmt 0 view .LVU2
  38 0002 1948     		ldr	r0, .L10
  39 0004 194B     		ldr	r3, .L10+4
  40 0006 0360     		str	r3, [r0]
  44:Core/Src/usart.c ****   huart1.Init.BaudRate = 19200;
  41              		.loc 1 44 3 is_stmt 1 view .LVU3
  42              		.loc 1 44 24 is_stmt 0 view .LVU4
  43 0008 9623     		movs	r3, #150
  44 000a DB01     		lsls	r3, r3, #7
  45 000c 4360     		str	r3, [r0, #4]
  45:Core/Src/usart.c ****   huart1.Init.WordLength = UART_WORDLENGTH_8B;
  46              		.loc 1 45 3 is_stmt 1 view .LVU5
  47              		.loc 1 45 26 is_stmt 0 view .LVU6
  48 000e 0023     		movs	r3, #0
  49 0010 8360     		str	r3, [r0, #8]
  46:Core/Src/usart.c ****   huart1.Init.StopBits = UART_STOPBITS_1;
  50              		.loc 1 46 3 is_stmt 1 view .LVU7
  51              		.loc 1 46 24 is_stmt 0 view .LVU8
  52 0012 C360     		str	r3, [r0, #12]
  47:Core/Src/usart.c ****   huart1.Init.Parity = UART_PARITY_NONE;
  53              		.loc 1 47 3 is_stmt 1 view .LVU9
  54              		.loc 1 47 22 is_stmt 0 view .LVU10
  55 0014 0361     		str	r3, [r0, #16]
  48:Core/Src/usart.c ****   huart1.Init.Mode = UART_MODE_TX_RX;
  56              		.loc 1 48 3 is_stmt 1 view .LVU11
  57              		.loc 1 48 20 is_stmt 0 view .LVU12
  58 0016 0C22     		movs	r2, #12
  59 0018 4261     		str	r2, [r0, #20]
  49:Core/Src/usart.c ****   huart1.Init.HwFlowCtl = UART_HWCONTROL_NONE;
  60              		.loc 1 49 3 is_stmt 1 view .LVU13
  61              		.loc 1 49 25 is_stmt 0 view .LVU14
  62 001a 8361     		str	r3, [r0, #24]
  50:Core/Src/usart.c ****   huart1.Init.OverSampling = UART_OVERSAMPLING_16;
  63              		.loc 1 50 3 is_stmt 1 view .LVU15
  64              		.loc 1 50 28 is_stmt 0 view .LVU16
  65 001c C361     		str	r3, [r0, #28]
ARM GAS  C:\Users\Xusniyor\AppData\Local\Temp\cc7F7IMk.s 			page 3


  51:Core/Src/usart.c ****   huart1.Init.OneBitSampling = UART_ONE_BIT_SAMPLE_DISABLE;
  66              		.loc 1 51 3 is_stmt 1 view .LVU17
  67              		.loc 1 51 30 is_stmt 0 view .LVU18
  68 001e 0362     		str	r3, [r0, #32]
  52:Core/Src/usart.c ****   huart1.Init.ClockPrescaler = UART_PRESCALER_DIV1;
  69              		.loc 1 52 3 is_stmt 1 view .LVU19
  70              		.loc 1 52 30 is_stmt 0 view .LVU20
  71 0020 4362     		str	r3, [r0, #36]
  53:Core/Src/usart.c ****   huart1.AdvancedInit.AdvFeatureInit = UART_ADVFEATURE_NO_INIT;
  72              		.loc 1 53 3 is_stmt 1 view .LVU21
  73              		.loc 1 53 38 is_stmt 0 view .LVU22
  74 0022 8362     		str	r3, [r0, #40]
  54:Core/Src/usart.c ****   if (HAL_UART_Init(&huart1) != HAL_OK)
  75              		.loc 1 54 3 is_stmt 1 view .LVU23
  76              		.loc 1 54 7 is_stmt 0 view .LVU24
  77 0024 FFF7FEFF 		bl	HAL_UART_Init
  78              	.LVL0:
  79              		.loc 1 54 6 view .LVU25
  80 0028 0028     		cmp	r0, #0
  81 002a 11D1     		bne	.L6
  82              	.L2:
  55:Core/Src/usart.c ****   {
  56:Core/Src/usart.c ****     Error_Handler();
  57:Core/Src/usart.c ****   }
  58:Core/Src/usart.c ****   if (HAL_UARTEx_SetTxFifoThreshold(&huart1, UART_TXFIFO_THRESHOLD_1_8) != HAL_OK)
  83              		.loc 1 58 3 is_stmt 1 view .LVU26
  84              		.loc 1 58 7 is_stmt 0 view .LVU27
  85 002c 0021     		movs	r1, #0
  86 002e 0E48     		ldr	r0, .L10
  87 0030 FFF7FEFF 		bl	HAL_UARTEx_SetTxFifoThreshold
  88              	.LVL1:
  89              		.loc 1 58 6 view .LVU28
  90 0034 0028     		cmp	r0, #0
  91 0036 0ED1     		bne	.L7
  92              	.L3:
  59:Core/Src/usart.c ****   {
  60:Core/Src/usart.c ****     Error_Handler();
  61:Core/Src/usart.c ****   }
  62:Core/Src/usart.c ****   if (HAL_UARTEx_SetRxFifoThreshold(&huart1, UART_RXFIFO_THRESHOLD_1_8) != HAL_OK)
  93              		.loc 1 62 3 is_stmt 1 view .LVU29
  94              		.loc 1 62 7 is_stmt 0 view .LVU30
  95 0038 0021     		movs	r1, #0
  96 003a 0B48     		ldr	r0, .L10
  97 003c FFF7FEFF 		bl	HAL_UARTEx_SetRxFifoThreshold
  98              	.LVL2:
  99              		.loc 1 62 6 view .LVU31
 100 0040 0028     		cmp	r0, #0
 101 0042 0BD1     		bne	.L8
 102              	.L4:
  63:Core/Src/usart.c ****   {
  64:Core/Src/usart.c ****     Error_Handler();
  65:Core/Src/usart.c ****   }
  66:Core/Src/usart.c ****   if (HAL_UARTEx_DisableFifoMode(&huart1) != HAL_OK)
 103              		.loc 1 66 3 is_stmt 1 view .LVU32
 104              		.loc 1 66 7 is_stmt 0 view .LVU33
 105 0044 0848     		ldr	r0, .L10
 106 0046 FFF7FEFF 		bl	HAL_UARTEx_DisableFifoMode
ARM GAS  C:\Users\Xusniyor\AppData\Local\Temp\cc7F7IMk.s 			page 4


 107              	.LVL3:
 108              		.loc 1 66 6 view .LVU34
 109 004a 0028     		cmp	r0, #0
 110 004c 09D1     		bne	.L9
 111              	.L1:
  67:Core/Src/usart.c ****   {
  68:Core/Src/usart.c ****     Error_Handler();
  69:Core/Src/usart.c ****   }
  70:Core/Src/usart.c ****   /* USER CODE BEGIN USART1_Init 2 */
  71:Core/Src/usart.c **** 
  72:Core/Src/usart.c ****   /* USER CODE END USART1_Init 2 */
  73:Core/Src/usart.c **** 
  74:Core/Src/usart.c **** }
 112              		.loc 1 74 1 view .LVU35
 113              		@ sp needed
 114 004e 10BD     		pop	{r4, pc}
 115              	.L6:
  56:Core/Src/usart.c ****   }
 116              		.loc 1 56 5 is_stmt 1 view .LVU36
 117 0050 FFF7FEFF 		bl	Error_Handler
 118              	.LVL4:
 119 0054 EAE7     		b	.L2
 120              	.L7:
  60:Core/Src/usart.c ****   }
 121              		.loc 1 60 5 view .LVU37
 122 0056 FFF7FEFF 		bl	Error_Handler
 123              	.LVL5:
 124 005a EDE7     		b	.L3
 125              	.L8:
  64:Core/Src/usart.c ****   }
 126              		.loc 1 64 5 view .LVU38
 127 005c FFF7FEFF 		bl	Error_Handler
 128              	.LVL6:
 129 0060 F0E7     		b	.L4
 130              	.L9:
  68:Core/Src/usart.c ****   }
 131              		.loc 1 68 5 view .LVU39
 132 0062 FFF7FEFF 		bl	Error_Handler
 133              	.LVL7:
 134              		.loc 1 74 1 is_stmt 0 view .LVU40
 135 0066 F2E7     		b	.L1
 136              	.L11:
 137              		.align	2
 138              	.L10:
 139 0068 00000000 		.word	huart1
 140 006c 00380140 		.word	1073821696
 141              		.cfi_endproc
 142              	.LFE297:
 144              		.section	.text.HAL_UART_MspInit,"ax",%progbits
 145              		.align	1
 146              		.global	HAL_UART_MspInit
 147              		.syntax unified
 148              		.code	16
 149              		.thumb_func
 151              	HAL_UART_MspInit:
 152              	.LVL8:
 153              	.LFB298:
ARM GAS  C:\Users\Xusniyor\AppData\Local\Temp\cc7F7IMk.s 			page 5


  75:Core/Src/usart.c **** 
  76:Core/Src/usart.c **** void HAL_UART_MspInit(UART_HandleTypeDef* uartHandle)
  77:Core/Src/usart.c **** {
 154              		.loc 1 77 1 is_stmt 1 view -0
 155              		.cfi_startproc
 156              		@ args = 0, pretend = 0, frame = 72
 157              		@ frame_needed = 0, uses_anonymous_args = 0
 158              		.loc 1 77 1 is_stmt 0 view .LVU42
 159 0000 30B5     		push	{r4, r5, lr}
 160              	.LCFI1:
 161              		.cfi_def_cfa_offset 12
 162              		.cfi_offset 4, -12
 163              		.cfi_offset 5, -8
 164              		.cfi_offset 14, -4
 165 0002 93B0     		sub	sp, sp, #76
 166              	.LCFI2:
 167              		.cfi_def_cfa_offset 88
 168 0004 0400     		movs	r4, r0
  78:Core/Src/usart.c **** 
  79:Core/Src/usart.c ****   GPIO_InitTypeDef GPIO_InitStruct = {0};
 169              		.loc 1 79 3 is_stmt 1 view .LVU43
 170              		.loc 1 79 20 is_stmt 0 view .LVU44
 171 0006 1422     		movs	r2, #20
 172 0008 0021     		movs	r1, #0
 173 000a 0DA8     		add	r0, sp, #52
 174              	.LVL9:
 175              		.loc 1 79 20 view .LVU45
 176 000c FFF7FEFF 		bl	memset
 177              	.LVL10:
  80:Core/Src/usart.c ****   RCC_PeriphCLKInitTypeDef PeriphClkInit = {0};
 178              		.loc 1 80 3 is_stmt 1 view .LVU46
 179              		.loc 1 80 28 is_stmt 0 view .LVU47
 180 0010 2822     		movs	r2, #40
 181 0012 0021     		movs	r1, #0
 182 0014 03A8     		add	r0, sp, #12
 183 0016 FFF7FEFF 		bl	memset
 184              	.LVL11:
  81:Core/Src/usart.c ****   if(uartHandle->Instance==USART1)
 185              		.loc 1 81 3 is_stmt 1 view .LVU48
 186              		.loc 1 81 5 is_stmt 0 view .LVU49
 187 001a 354B     		ldr	r3, .L21
 188 001c 2268     		ldr	r2, [r4]
 189 001e 9A42     		cmp	r2, r3
 190 0020 01D0     		beq	.L17
 191              	.L12:
  82:Core/Src/usart.c ****   {
  83:Core/Src/usart.c ****   /* USER CODE BEGIN USART1_MspInit 0 */
  84:Core/Src/usart.c **** 
  85:Core/Src/usart.c ****   /* USER CODE END USART1_MspInit 0 */
  86:Core/Src/usart.c ****   /** Initializes the peripherals clocks
  87:Core/Src/usart.c ****   */
  88:Core/Src/usart.c ****     PeriphClkInit.PeriphClockSelection = RCC_PERIPHCLK_USART1;
  89:Core/Src/usart.c ****     PeriphClkInit.Usart1ClockSelection = RCC_USART1CLKSOURCE_PCLK1;
  90:Core/Src/usart.c ****     if (HAL_RCCEx_PeriphCLKConfig(&PeriphClkInit) != HAL_OK)
  91:Core/Src/usart.c ****     {
  92:Core/Src/usart.c ****       Error_Handler();
  93:Core/Src/usart.c ****     }
ARM GAS  C:\Users\Xusniyor\AppData\Local\Temp\cc7F7IMk.s 			page 6


  94:Core/Src/usart.c **** 
  95:Core/Src/usart.c ****     /* USART1 clock enable */
  96:Core/Src/usart.c ****     __HAL_RCC_USART1_CLK_ENABLE();
  97:Core/Src/usart.c **** 
  98:Core/Src/usart.c ****     __HAL_RCC_GPIOA_CLK_ENABLE();
  99:Core/Src/usart.c ****     /**USART1 GPIO Configuration
 100:Core/Src/usart.c ****     PA9 [PA11]     ------> USART1_TX
 101:Core/Src/usart.c ****     PA10 [PA12]     ------> USART1_RX
 102:Core/Src/usart.c ****     */
 103:Core/Src/usart.c ****     GPIO_InitStruct.Pin = GPIO_PIN_9|GPIO_PIN_10;
 104:Core/Src/usart.c ****     GPIO_InitStruct.Mode = GPIO_MODE_AF_PP;
 105:Core/Src/usart.c ****     GPIO_InitStruct.Pull = GPIO_NOPULL;
 106:Core/Src/usart.c ****     GPIO_InitStruct.Speed = GPIO_SPEED_FREQ_VERY_HIGH;
 107:Core/Src/usart.c ****     GPIO_InitStruct.Alternate = GPIO_AF1_USART1;
 108:Core/Src/usart.c ****     HAL_GPIO_Init(GPIOA, &GPIO_InitStruct);
 109:Core/Src/usart.c **** 
 110:Core/Src/usart.c ****     /* USART1 DMA Init */
 111:Core/Src/usart.c ****     /* USART1_RX Init */
 112:Core/Src/usart.c ****     hdma_usart1_rx.Instance = DMA1_Channel1;
 113:Core/Src/usart.c ****     hdma_usart1_rx.Init.Request = DMA_REQUEST_USART1_RX;
 114:Core/Src/usart.c ****     hdma_usart1_rx.Init.Direction = DMA_PERIPH_TO_MEMORY;
 115:Core/Src/usart.c ****     hdma_usart1_rx.Init.PeriphInc = DMA_PINC_DISABLE;
 116:Core/Src/usart.c ****     hdma_usart1_rx.Init.MemInc = DMA_MINC_ENABLE;
 117:Core/Src/usart.c ****     hdma_usart1_rx.Init.PeriphDataAlignment = DMA_PDATAALIGN_BYTE;
 118:Core/Src/usart.c ****     hdma_usart1_rx.Init.MemDataAlignment = DMA_MDATAALIGN_BYTE;
 119:Core/Src/usart.c ****     hdma_usart1_rx.Init.Mode = DMA_NORMAL;
 120:Core/Src/usart.c ****     hdma_usart1_rx.Init.Priority = DMA_PRIORITY_LOW;
 121:Core/Src/usart.c ****     if (HAL_DMA_Init(&hdma_usart1_rx) != HAL_OK)
 122:Core/Src/usart.c ****     {
 123:Core/Src/usart.c ****       Error_Handler();
 124:Core/Src/usart.c ****     }
 125:Core/Src/usart.c **** 
 126:Core/Src/usart.c ****     __HAL_LINKDMA(uartHandle,hdmarx,hdma_usart1_rx);
 127:Core/Src/usart.c **** 
 128:Core/Src/usart.c ****     /* USART1_TX Init */
 129:Core/Src/usart.c ****     hdma_usart1_tx.Instance = DMA1_Channel2;
 130:Core/Src/usart.c ****     hdma_usart1_tx.Init.Request = DMA_REQUEST_USART1_TX;
 131:Core/Src/usart.c ****     hdma_usart1_tx.Init.Direction = DMA_MEMORY_TO_PERIPH;
 132:Core/Src/usart.c ****     hdma_usart1_tx.Init.PeriphInc = DMA_PINC_DISABLE;
 133:Core/Src/usart.c ****     hdma_usart1_tx.Init.MemInc = DMA_MINC_ENABLE;
 134:Core/Src/usart.c ****     hdma_usart1_tx.Init.PeriphDataAlignment = DMA_PDATAALIGN_BYTE;
 135:Core/Src/usart.c ****     hdma_usart1_tx.Init.MemDataAlignment = DMA_MDATAALIGN_BYTE;
 136:Core/Src/usart.c ****     hdma_usart1_tx.Init.Mode = DMA_NORMAL;
 137:Core/Src/usart.c ****     hdma_usart1_tx.Init.Priority = DMA_PRIORITY_LOW;
 138:Core/Src/usart.c ****     if (HAL_DMA_Init(&hdma_usart1_tx) != HAL_OK)
 139:Core/Src/usart.c ****     {
 140:Core/Src/usart.c ****       Error_Handler();
 141:Core/Src/usart.c ****     }
 142:Core/Src/usart.c **** 
 143:Core/Src/usart.c ****     __HAL_LINKDMA(uartHandle,hdmatx,hdma_usart1_tx);
 144:Core/Src/usart.c **** 
 145:Core/Src/usart.c ****     /* USART1 interrupt Init */
 146:Core/Src/usart.c ****     HAL_NVIC_SetPriority(USART1_IRQn, 0, 0);
 147:Core/Src/usart.c ****     HAL_NVIC_EnableIRQ(USART1_IRQn);
 148:Core/Src/usart.c ****   /* USER CODE BEGIN USART1_MspInit 1 */
 149:Core/Src/usart.c **** 
 150:Core/Src/usart.c ****   /* USER CODE END USART1_MspInit 1 */
ARM GAS  C:\Users\Xusniyor\AppData\Local\Temp\cc7F7IMk.s 			page 7


 151:Core/Src/usart.c ****   }
 152:Core/Src/usart.c **** }
 192              		.loc 1 152 1 view .LVU50
 193 0022 13B0     		add	sp, sp, #76
 194              		@ sp needed
 195              	.LVL12:
 196              		.loc 1 152 1 view .LVU51
 197 0024 30BD     		pop	{r4, r5, pc}
 198              	.LVL13:
 199              	.L17:
  88:Core/Src/usart.c ****     PeriphClkInit.Usart1ClockSelection = RCC_USART1CLKSOURCE_PCLK1;
 200              		.loc 1 88 5 is_stmt 1 view .LVU52
  88:Core/Src/usart.c ****     PeriphClkInit.Usart1ClockSelection = RCC_USART1CLKSOURCE_PCLK1;
 201              		.loc 1 88 40 is_stmt 0 view .LVU53
 202 0026 0123     		movs	r3, #1
 203 0028 0393     		str	r3, [sp, #12]
  89:Core/Src/usart.c ****     if (HAL_RCCEx_PeriphCLKConfig(&PeriphClkInit) != HAL_OK)
 204              		.loc 1 89 5 is_stmt 1 view .LVU54
  90:Core/Src/usart.c ****     {
 205              		.loc 1 90 5 view .LVU55
  90:Core/Src/usart.c ****     {
 206              		.loc 1 90 9 is_stmt 0 view .LVU56
 207 002a 03A8     		add	r0, sp, #12
 208 002c FFF7FEFF 		bl	HAL_RCCEx_PeriphCLKConfig
 209              	.LVL14:
  90:Core/Src/usart.c ****     {
 210              		.loc 1 90 8 view .LVU57
 211 0030 0028     		cmp	r0, #0
 212 0032 53D1     		bne	.L18
 213              	.L14:
  96:Core/Src/usart.c **** 
 214              		.loc 1 96 5 is_stmt 1 view .LVU58
 215              	.LBB2:
  96:Core/Src/usart.c **** 
 216              		.loc 1 96 5 view .LVU59
  96:Core/Src/usart.c **** 
 217              		.loc 1 96 5 view .LVU60
 218 0034 2F4B     		ldr	r3, .L21+4
 219 0036 196C     		ldr	r1, [r3, #64]
 220 0038 8020     		movs	r0, #128
 221 003a C001     		lsls	r0, r0, #7
 222 003c 0143     		orrs	r1, r0
 223 003e 1964     		str	r1, [r3, #64]
  96:Core/Src/usart.c **** 
 224              		.loc 1 96 5 view .LVU61
 225 0040 1A6C     		ldr	r2, [r3, #64]
 226 0042 0240     		ands	r2, r0
 227 0044 0192     		str	r2, [sp, #4]
  96:Core/Src/usart.c **** 
 228              		.loc 1 96 5 view .LVU62
 229 0046 019A     		ldr	r2, [sp, #4]
 230              	.LBE2:
  96:Core/Src/usart.c **** 
 231              		.loc 1 96 5 view .LVU63
  98:Core/Src/usart.c ****     /**USART1 GPIO Configuration
 232              		.loc 1 98 5 view .LVU64
 233              	.LBB3:
ARM GAS  C:\Users\Xusniyor\AppData\Local\Temp\cc7F7IMk.s 			page 8


  98:Core/Src/usart.c ****     /**USART1 GPIO Configuration
 234              		.loc 1 98 5 view .LVU65
  98:Core/Src/usart.c ****     /**USART1 GPIO Configuration
 235              		.loc 1 98 5 view .LVU66
 236 0048 596B     		ldr	r1, [r3, #52]
 237 004a 0122     		movs	r2, #1
 238 004c 1143     		orrs	r1, r2
 239 004e 5963     		str	r1, [r3, #52]
  98:Core/Src/usart.c ****     /**USART1 GPIO Configuration
 240              		.loc 1 98 5 view .LVU67
 241 0050 5B6B     		ldr	r3, [r3, #52]
 242 0052 1340     		ands	r3, r2
 243 0054 0293     		str	r3, [sp, #8]
  98:Core/Src/usart.c ****     /**USART1 GPIO Configuration
 244              		.loc 1 98 5 view .LVU68
 245 0056 029B     		ldr	r3, [sp, #8]
 246              	.LBE3:
  98:Core/Src/usart.c ****     /**USART1 GPIO Configuration
 247              		.loc 1 98 5 view .LVU69
 103:Core/Src/usart.c ****     GPIO_InitStruct.Mode = GPIO_MODE_AF_PP;
 248              		.loc 1 103 5 view .LVU70
 103:Core/Src/usart.c ****     GPIO_InitStruct.Mode = GPIO_MODE_AF_PP;
 249              		.loc 1 103 25 is_stmt 0 view .LVU71
 250 0058 C023     		movs	r3, #192
 251 005a DB00     		lsls	r3, r3, #3
 252 005c 0D93     		str	r3, [sp, #52]
 104:Core/Src/usart.c ****     GPIO_InitStruct.Pull = GPIO_NOPULL;
 253              		.loc 1 104 5 is_stmt 1 view .LVU72
 104:Core/Src/usart.c ****     GPIO_InitStruct.Pull = GPIO_NOPULL;
 254              		.loc 1 104 26 is_stmt 0 view .LVU73
 255 005e 0223     		movs	r3, #2
 256 0060 0E93     		str	r3, [sp, #56]
 105:Core/Src/usart.c ****     GPIO_InitStruct.Speed = GPIO_SPEED_FREQ_VERY_HIGH;
 257              		.loc 1 105 5 is_stmt 1 view .LVU74
 105:Core/Src/usart.c ****     GPIO_InitStruct.Speed = GPIO_SPEED_FREQ_VERY_HIGH;
 258              		.loc 1 105 26 is_stmt 0 view .LVU75
 259 0062 0025     		movs	r5, #0
 260 0064 0F95     		str	r5, [sp, #60]
 106:Core/Src/usart.c ****     GPIO_InitStruct.Alternate = GPIO_AF1_USART1;
 261              		.loc 1 106 5 is_stmt 1 view .LVU76
 106:Core/Src/usart.c ****     GPIO_InitStruct.Alternate = GPIO_AF1_USART1;
 262              		.loc 1 106 27 is_stmt 0 view .LVU77
 263 0066 0133     		adds	r3, r3, #1
 264 0068 1093     		str	r3, [sp, #64]
 107:Core/Src/usart.c ****     HAL_GPIO_Init(GPIOA, &GPIO_InitStruct);
 265              		.loc 1 107 5 is_stmt 1 view .LVU78
 107:Core/Src/usart.c ****     HAL_GPIO_Init(GPIOA, &GPIO_InitStruct);
 266              		.loc 1 107 31 is_stmt 0 view .LVU79
 267 006a 1192     		str	r2, [sp, #68]
 108:Core/Src/usart.c **** 
 268              		.loc 1 108 5 is_stmt 1 view .LVU80
 269 006c A020     		movs	r0, #160
 270 006e 0DA9     		add	r1, sp, #52
 271 0070 C005     		lsls	r0, r0, #23
 272 0072 FFF7FEFF 		bl	HAL_GPIO_Init
 273              	.LVL15:
 112:Core/Src/usart.c ****     hdma_usart1_rx.Init.Request = DMA_REQUEST_USART1_RX;
ARM GAS  C:\Users\Xusniyor\AppData\Local\Temp\cc7F7IMk.s 			page 9


 274              		.loc 1 112 5 view .LVU81
 112:Core/Src/usart.c ****     hdma_usart1_rx.Init.Request = DMA_REQUEST_USART1_RX;
 275              		.loc 1 112 29 is_stmt 0 view .LVU82
 276 0076 2048     		ldr	r0, .L21+8
 277 0078 204B     		ldr	r3, .L21+12
 278 007a 0360     		str	r3, [r0]
 113:Core/Src/usart.c ****     hdma_usart1_rx.Init.Direction = DMA_PERIPH_TO_MEMORY;
 279              		.loc 1 113 5 is_stmt 1 view .LVU83
 113:Core/Src/usart.c ****     hdma_usart1_rx.Init.Direction = DMA_PERIPH_TO_MEMORY;
 280              		.loc 1 113 33 is_stmt 0 view .LVU84
 281 007c 3223     		movs	r3, #50
 282 007e 4360     		str	r3, [r0, #4]
 114:Core/Src/usart.c ****     hdma_usart1_rx.Init.PeriphInc = DMA_PINC_DISABLE;
 283              		.loc 1 114 5 is_stmt 1 view .LVU85
 114:Core/Src/usart.c ****     hdma_usart1_rx.Init.PeriphInc = DMA_PINC_DISABLE;
 284              		.loc 1 114 35 is_stmt 0 view .LVU86
 285 0080 8560     		str	r5, [r0, #8]
 115:Core/Src/usart.c ****     hdma_usart1_rx.Init.MemInc = DMA_MINC_ENABLE;
 286              		.loc 1 115 5 is_stmt 1 view .LVU87
 115:Core/Src/usart.c ****     hdma_usart1_rx.Init.MemInc = DMA_MINC_ENABLE;
 287              		.loc 1 115 35 is_stmt 0 view .LVU88
 288 0082 C560     		str	r5, [r0, #12]
 116:Core/Src/usart.c ****     hdma_usart1_rx.Init.PeriphDataAlignment = DMA_PDATAALIGN_BYTE;
 289              		.loc 1 116 5 is_stmt 1 view .LVU89
 116:Core/Src/usart.c ****     hdma_usart1_rx.Init.PeriphDataAlignment = DMA_PDATAALIGN_BYTE;
 290              		.loc 1 116 32 is_stmt 0 view .LVU90
 291 0084 4E33     		adds	r3, r3, #78
 292 0086 0361     		str	r3, [r0, #16]
 117:Core/Src/usart.c ****     hdma_usart1_rx.Init.MemDataAlignment = DMA_MDATAALIGN_BYTE;
 293              		.loc 1 117 5 is_stmt 1 view .LVU91
 117:Core/Src/usart.c ****     hdma_usart1_rx.Init.MemDataAlignment = DMA_MDATAALIGN_BYTE;
 294              		.loc 1 117 45 is_stmt 0 view .LVU92
 295 0088 4561     		str	r5, [r0, #20]
 118:Core/Src/usart.c ****     hdma_usart1_rx.Init.Mode = DMA_NORMAL;
 296              		.loc 1 118 5 is_stmt 1 view .LVU93
 118:Core/Src/usart.c ****     hdma_usart1_rx.Init.Mode = DMA_NORMAL;
 297              		.loc 1 118 42 is_stmt 0 view .LVU94
 298 008a 8561     		str	r5, [r0, #24]
 119:Core/Src/usart.c ****     hdma_usart1_rx.Init.Priority = DMA_PRIORITY_LOW;
 299              		.loc 1 119 5 is_stmt 1 view .LVU95
 119:Core/Src/usart.c ****     hdma_usart1_rx.Init.Priority = DMA_PRIORITY_LOW;
 300              		.loc 1 119 30 is_stmt 0 view .LVU96
 301 008c C561     		str	r5, [r0, #28]
 120:Core/Src/usart.c ****     if (HAL_DMA_Init(&hdma_usart1_rx) != HAL_OK)
 302              		.loc 1 120 5 is_stmt 1 view .LVU97
 120:Core/Src/usart.c ****     if (HAL_DMA_Init(&hdma_usart1_rx) != HAL_OK)
 303              		.loc 1 120 34 is_stmt 0 view .LVU98
 304 008e 0562     		str	r5, [r0, #32]
 121:Core/Src/usart.c ****     {
 305              		.loc 1 121 5 is_stmt 1 view .LVU99
 121:Core/Src/usart.c ****     {
 306              		.loc 1 121 9 is_stmt 0 view .LVU100
 307 0090 FFF7FEFF 		bl	HAL_DMA_Init
 308              	.LVL16:
 121:Core/Src/usart.c ****     {
 309              		.loc 1 121 8 view .LVU101
 310 0094 0028     		cmp	r0, #0
ARM GAS  C:\Users\Xusniyor\AppData\Local\Temp\cc7F7IMk.s 			page 10


 311 0096 24D1     		bne	.L19
 312              	.L15:
 126:Core/Src/usart.c **** 
 313              		.loc 1 126 5 is_stmt 1 view .LVU102
 126:Core/Src/usart.c **** 
 314              		.loc 1 126 5 view .LVU103
 315 0098 174B     		ldr	r3, .L21+8
 316 009a E367     		str	r3, [r4, #124]
 126:Core/Src/usart.c **** 
 317              		.loc 1 126 5 view .LVU104
 318 009c 9C62     		str	r4, [r3, #40]
 126:Core/Src/usart.c **** 
 319              		.loc 1 126 5 view .LVU105
 129:Core/Src/usart.c ****     hdma_usart1_tx.Init.Request = DMA_REQUEST_USART1_TX;
 320              		.loc 1 129 5 view .LVU106
 129:Core/Src/usart.c ****     hdma_usart1_tx.Init.Request = DMA_REQUEST_USART1_TX;
 321              		.loc 1 129 29 is_stmt 0 view .LVU107
 322 009e 1848     		ldr	r0, .L21+16
 323 00a0 184B     		ldr	r3, .L21+20
 324 00a2 0360     		str	r3, [r0]
 130:Core/Src/usart.c ****     hdma_usart1_tx.Init.Direction = DMA_MEMORY_TO_PERIPH;
 325              		.loc 1 130 5 is_stmt 1 view .LVU108
 130:Core/Src/usart.c ****     hdma_usart1_tx.Init.Direction = DMA_MEMORY_TO_PERIPH;
 326              		.loc 1 130 33 is_stmt 0 view .LVU109
 327 00a4 3323     		movs	r3, #51
 328 00a6 4360     		str	r3, [r0, #4]
 131:Core/Src/usart.c ****     hdma_usart1_tx.Init.PeriphInc = DMA_PINC_DISABLE;
 329              		.loc 1 131 5 is_stmt 1 view .LVU110
 131:Core/Src/usart.c ****     hdma_usart1_tx.Init.PeriphInc = DMA_PINC_DISABLE;
 330              		.loc 1 131 35 is_stmt 0 view .LVU111
 331 00a8 233B     		subs	r3, r3, #35
 332 00aa 8360     		str	r3, [r0, #8]
 132:Core/Src/usart.c ****     hdma_usart1_tx.Init.MemInc = DMA_MINC_ENABLE;
 333              		.loc 1 132 5 is_stmt 1 view .LVU112
 132:Core/Src/usart.c ****     hdma_usart1_tx.Init.MemInc = DMA_MINC_ENABLE;
 334              		.loc 1 132 35 is_stmt 0 view .LVU113
 335 00ac 0023     		movs	r3, #0
 336 00ae C360     		str	r3, [r0, #12]
 133:Core/Src/usart.c ****     hdma_usart1_tx.Init.PeriphDataAlignment = DMA_PDATAALIGN_BYTE;
 337              		.loc 1 133 5 is_stmt 1 view .LVU114
 133:Core/Src/usart.c ****     hdma_usart1_tx.Init.PeriphDataAlignment = DMA_PDATAALIGN_BYTE;
 338              		.loc 1 133 32 is_stmt 0 view .LVU115
 339 00b0 8022     		movs	r2, #128
 340 00b2 0261     		str	r2, [r0, #16]
 134:Core/Src/usart.c ****     hdma_usart1_tx.Init.MemDataAlignment = DMA_MDATAALIGN_BYTE;
 341              		.loc 1 134 5 is_stmt 1 view .LVU116
 134:Core/Src/usart.c ****     hdma_usart1_tx.Init.MemDataAlignment = DMA_MDATAALIGN_BYTE;
 342              		.loc 1 134 45 is_stmt 0 view .LVU117
 343 00b4 4361     		str	r3, [r0, #20]
 135:Core/Src/usart.c ****     hdma_usart1_tx.Init.Mode = DMA_NORMAL;
 344              		.loc 1 135 5 is_stmt 1 view .LVU118
 135:Core/Src/usart.c ****     hdma_usart1_tx.Init.Mode = DMA_NORMAL;
 345              		.loc 1 135 42 is_stmt 0 view .LVU119
 346 00b6 8361     		str	r3, [r0, #24]
 136:Core/Src/usart.c ****     hdma_usart1_tx.Init.Priority = DMA_PRIORITY_LOW;
 347              		.loc 1 136 5 is_stmt 1 view .LVU120
 136:Core/Src/usart.c ****     hdma_usart1_tx.Init.Priority = DMA_PRIORITY_LOW;
ARM GAS  C:\Users\Xusniyor\AppData\Local\Temp\cc7F7IMk.s 			page 11


 348              		.loc 1 136 30 is_stmt 0 view .LVU121
 349 00b8 C361     		str	r3, [r0, #28]
 137:Core/Src/usart.c ****     if (HAL_DMA_Init(&hdma_usart1_tx) != HAL_OK)
 350              		.loc 1 137 5 is_stmt 1 view .LVU122
 137:Core/Src/usart.c ****     if (HAL_DMA_Init(&hdma_usart1_tx) != HAL_OK)
 351              		.loc 1 137 34 is_stmt 0 view .LVU123
 352 00ba 0362     		str	r3, [r0, #32]
 138:Core/Src/usart.c ****     {
 353              		.loc 1 138 5 is_stmt 1 view .LVU124
 138:Core/Src/usart.c ****     {
 354              		.loc 1 138 9 is_stmt 0 view .LVU125
 355 00bc FFF7FEFF 		bl	HAL_DMA_Init
 356              	.LVL17:
 138:Core/Src/usart.c ****     {
 357              		.loc 1 138 8 view .LVU126
 358 00c0 0028     		cmp	r0, #0
 359 00c2 11D1     		bne	.L20
 360              	.L16:
 143:Core/Src/usart.c **** 
 361              		.loc 1 143 5 is_stmt 1 view .LVU127
 143:Core/Src/usart.c **** 
 362              		.loc 1 143 5 view .LVU128
 363 00c4 0E4B     		ldr	r3, .L21+16
 364 00c6 A367     		str	r3, [r4, #120]
 143:Core/Src/usart.c **** 
 365              		.loc 1 143 5 view .LVU129
 366 00c8 9C62     		str	r4, [r3, #40]
 143:Core/Src/usart.c **** 
 367              		.loc 1 143 5 view .LVU130
 146:Core/Src/usart.c ****     HAL_NVIC_EnableIRQ(USART1_IRQn);
 368              		.loc 1 146 5 view .LVU131
 369 00ca 0022     		movs	r2, #0
 370 00cc 0021     		movs	r1, #0
 371 00ce 1B20     		movs	r0, #27
 372 00d0 FFF7FEFF 		bl	HAL_NVIC_SetPriority
 373              	.LVL18:
 147:Core/Src/usart.c ****   /* USER CODE BEGIN USART1_MspInit 1 */
 374              		.loc 1 147 5 view .LVU132
 375 00d4 1B20     		movs	r0, #27
 376 00d6 FFF7FEFF 		bl	HAL_NVIC_EnableIRQ
 377              	.LVL19:
 378              		.loc 1 152 1 is_stmt 0 view .LVU133
 379 00da A2E7     		b	.L12
 380              	.L18:
  92:Core/Src/usart.c ****     }
 381              		.loc 1 92 7 is_stmt 1 view .LVU134
 382 00dc FFF7FEFF 		bl	Error_Handler
 383              	.LVL20:
 384 00e0 A8E7     		b	.L14
 385              	.L19:
 123:Core/Src/usart.c ****     }
 386              		.loc 1 123 7 view .LVU135
 387 00e2 FFF7FEFF 		bl	Error_Handler
 388              	.LVL21:
 389 00e6 D7E7     		b	.L15
 390              	.L20:
 140:Core/Src/usart.c ****     }
ARM GAS  C:\Users\Xusniyor\AppData\Local\Temp\cc7F7IMk.s 			page 12


 391              		.loc 1 140 7 view .LVU136
 392 00e8 FFF7FEFF 		bl	Error_Handler
 393              	.LVL22:
 394 00ec EAE7     		b	.L16
 395              	.L22:
 396 00ee C046     		.align	2
 397              	.L21:
 398 00f0 00380140 		.word	1073821696
 399 00f4 00100240 		.word	1073876992
 400 00f8 00000000 		.word	.LANCHOR0
 401 00fc 08000240 		.word	1073872904
 402 0100 00000000 		.word	.LANCHOR1
 403 0104 1C000240 		.word	1073872924
 404              		.cfi_endproc
 405              	.LFE298:
 407              		.section	.text.HAL_UART_MspDeInit,"ax",%progbits
 408              		.align	1
 409              		.global	HAL_UART_MspDeInit
 410              		.syntax unified
 411              		.code	16
 412              		.thumb_func
 414              	HAL_UART_MspDeInit:
 415              	.LVL23:
 416              	.LFB299:
 153:Core/Src/usart.c **** 
 154:Core/Src/usart.c **** void HAL_UART_MspDeInit(UART_HandleTypeDef* uartHandle)
 155:Core/Src/usart.c **** {
 417              		.loc 1 155 1 view -0
 418              		.cfi_startproc
 419              		@ args = 0, pretend = 0, frame = 0
 420              		@ frame_needed = 0, uses_anonymous_args = 0
 421              		.loc 1 155 1 is_stmt 0 view .LVU138
 422 0000 10B5     		push	{r4, lr}
 423              	.LCFI3:
 424              		.cfi_def_cfa_offset 8
 425              		.cfi_offset 4, -8
 426              		.cfi_offset 14, -4
 427 0002 0400     		movs	r4, r0
 156:Core/Src/usart.c **** 
 157:Core/Src/usart.c ****   if(uartHandle->Instance==USART1)
 428              		.loc 1 157 3 is_stmt 1 view .LVU139
 429              		.loc 1 157 5 is_stmt 0 view .LVU140
 430 0004 0C4B     		ldr	r3, .L26
 431 0006 0268     		ldr	r2, [r0]
 432 0008 9A42     		cmp	r2, r3
 433 000a 00D0     		beq	.L25
 434              	.LVL24:
 435              	.L23:
 158:Core/Src/usart.c ****   {
 159:Core/Src/usart.c ****   /* USER CODE BEGIN USART1_MspDeInit 0 */
 160:Core/Src/usart.c **** 
 161:Core/Src/usart.c ****   /* USER CODE END USART1_MspDeInit 0 */
 162:Core/Src/usart.c ****     /* Peripheral clock disable */
 163:Core/Src/usart.c ****     __HAL_RCC_USART1_CLK_DISABLE();
 164:Core/Src/usart.c **** 
 165:Core/Src/usart.c ****     /**USART1 GPIO Configuration
 166:Core/Src/usart.c ****     PA9 [PA11]     ------> USART1_TX
ARM GAS  C:\Users\Xusniyor\AppData\Local\Temp\cc7F7IMk.s 			page 13


 167:Core/Src/usart.c ****     PA10 [PA12]     ------> USART1_RX
 168:Core/Src/usart.c ****     */
 169:Core/Src/usart.c ****     HAL_GPIO_DeInit(GPIOA, GPIO_PIN_9|GPIO_PIN_10);
 170:Core/Src/usart.c **** 
 171:Core/Src/usart.c ****     /* USART1 DMA DeInit */
 172:Core/Src/usart.c ****     HAL_DMA_DeInit(uartHandle->hdmarx);
 173:Core/Src/usart.c ****     HAL_DMA_DeInit(uartHandle->hdmatx);
 174:Core/Src/usart.c **** 
 175:Core/Src/usart.c ****     /* USART1 interrupt Deinit */
 176:Core/Src/usart.c ****     HAL_NVIC_DisableIRQ(USART1_IRQn);
 177:Core/Src/usart.c ****   /* USER CODE BEGIN USART1_MspDeInit 1 */
 178:Core/Src/usart.c **** 
 179:Core/Src/usart.c ****   /* USER CODE END USART1_MspDeInit 1 */
 180:Core/Src/usart.c ****   }
 181:Core/Src/usart.c **** }
 436              		.loc 1 181 1 view .LVU141
 437              		@ sp needed
 438              	.LVL25:
 439              		.loc 1 181 1 view .LVU142
 440 000c 10BD     		pop	{r4, pc}
 441              	.LVL26:
 442              	.L25:
 163:Core/Src/usart.c **** 
 443              		.loc 1 163 5 is_stmt 1 view .LVU143
 444 000e 0B4A     		ldr	r2, .L26+4
 445 0010 136C     		ldr	r3, [r2, #64]
 446 0012 0B49     		ldr	r1, .L26+8
 447 0014 0B40     		ands	r3, r1
 448 0016 1364     		str	r3, [r2, #64]
 169:Core/Src/usart.c **** 
 449              		.loc 1 169 5 view .LVU144
 450 0018 C021     		movs	r1, #192
 451 001a A020     		movs	r0, #160
 452              	.LVL27:
 169:Core/Src/usart.c **** 
 453              		.loc 1 169 5 is_stmt 0 view .LVU145
 454 001c C900     		lsls	r1, r1, #3
 455 001e C005     		lsls	r0, r0, #23
 456 0020 FFF7FEFF 		bl	HAL_GPIO_DeInit
 457              	.LVL28:
 172:Core/Src/usart.c ****     HAL_DMA_DeInit(uartHandle->hdmatx);
 458              		.loc 1 172 5 is_stmt 1 view .LVU146
 459 0024 E06F     		ldr	r0, [r4, #124]
 460 0026 FFF7FEFF 		bl	HAL_DMA_DeInit
 461              	.LVL29:
 173:Core/Src/usart.c **** 
 462              		.loc 1 173 5 view .LVU147
 463 002a A06F     		ldr	r0, [r4, #120]
 464 002c FFF7FEFF 		bl	HAL_DMA_DeInit
 465              	.LVL30:
 176:Core/Src/usart.c ****   /* USER CODE BEGIN USART1_MspDeInit 1 */
 466              		.loc 1 176 5 view .LVU148
 467 0030 1B20     		movs	r0, #27
 468 0032 FFF7FEFF 		bl	HAL_NVIC_DisableIRQ
 469              	.LVL31:
 470              		.loc 1 181 1 is_stmt 0 view .LVU149
 471 0036 E9E7     		b	.L23
ARM GAS  C:\Users\Xusniyor\AppData\Local\Temp\cc7F7IMk.s 			page 14


 472              	.L27:
 473              		.align	2
 474              	.L26:
 475 0038 00380140 		.word	1073821696
 476 003c 00100240 		.word	1073876992
 477 0040 FFBFFFFF 		.word	-16385
 478              		.cfi_endproc
 479              	.LFE299:
 481              		.global	hdma_usart1_tx
 482              		.global	hdma_usart1_rx
 483              		.global	huart1
 484              		.section	.bss.hdma_usart1_rx,"aw",%nobits
 485              		.align	2
 486              		.set	.LANCHOR0,. + 0
 489              	hdma_usart1_rx:
 490 0000 00000000 		.space	92
 490      00000000 
 490      00000000 
 490      00000000 
 490      00000000 
 491              		.section	.bss.hdma_usart1_tx,"aw",%nobits
 492              		.align	2
 493              		.set	.LANCHOR1,. + 0
 496              	hdma_usart1_tx:
 497 0000 00000000 		.space	92
 497      00000000 
 497      00000000 
 497      00000000 
 497      00000000 
 498              		.section	.bss.huart1,"aw",%nobits
 499              		.align	2
 502              	huart1:
 503 0000 00000000 		.space	144
 503      00000000 
 503      00000000 
 503      00000000 
 503      00000000 
 504              		.text
 505              	.Letext0:
 506              		.file 2 "c:\\program files (x86)\\gnu arm embedded toolchain\\10 2021.10\\arm-none-eabi\\include\\
 507              		.file 3 "c:\\program files (x86)\\gnu arm embedded toolchain\\10 2021.10\\arm-none-eabi\\include\\
 508              		.file 4 "Drivers/CMSIS/Device/ST/STM32G0xx/Include/stm32g031xx.h"
 509              		.file 5 "Drivers/STM32G0xx_HAL_Driver/Inc/stm32g0xx_hal_def.h"
 510              		.file 6 "Drivers/STM32G0xx_HAL_Driver/Inc/stm32g0xx_hal_rcc_ex.h"
 511              		.file 7 "Drivers/STM32G0xx_HAL_Driver/Inc/stm32g0xx_hal_gpio.h"
 512              		.file 8 "Drivers/STM32G0xx_HAL_Driver/Inc/stm32g0xx_hal_dma.h"
 513              		.file 9 "Drivers/STM32G0xx_HAL_Driver/Inc/stm32g0xx_hal_uart.h"
 514              		.file 10 "Core/Inc/usart.h"
 515              		.file 11 "Drivers/STM32G0xx_HAL_Driver/Inc/stm32g0xx_ll_dma.h"
 516              		.file 12 "Drivers/STM32G0xx_HAL_Driver/Inc/stm32g0xx_hal_cortex.h"
 517              		.file 13 "Core/Inc/main.h"
 518              		.file 14 "Drivers/STM32G0xx_HAL_Driver/Inc/stm32g0xx_hal_uart_ex.h"
 519              		.file 15 "<built-in>"
ARM GAS  C:\Users\Xusniyor\AppData\Local\Temp\cc7F7IMk.s 			page 15

